BL51 BANKED LINKER/LOCATER V6.22                                                        01/05/2016  13:28:04  PAGE 1


BL51 BANKED LINKER/LOCATER V6.22, INVOKED BY:
C:\KEIL\C51\BIN\BL51.EXE .\OBJ\STARTUP.obj, .\OBJ\HD_cfg.obj, .\OBJ\AD.obj, .\OBJ\Buzzer.obj, .\OBJ\LED.obj, .\OBJ\Key.o
>> bj, .\OBJ\SSP.obj, .\OBJ\LCD.obj, .\OBJ\IIC.obj, .\OBJ\Main.obj, .\OBJ\System.obj, .\OBJ\Script.obj, .\OBJ\Time.obj, 
>> .\OBJ\TempCtr.obj, .\OBJ\TableFunc.obj, .\OBJ\Tables.obj, .\SRC\SinoLib.LIB, .\OBJ\math.obj TO .\OBJ\Actigrains PRINT
>>  (.\LST\Actigrains.m51) RAMSIZE (256)


MEMORY MODEL: SMALL


INPUT MODULES INCLUDED:
  .\OBJ\STARTUP.obj (?C_STARTUP)
  .\OBJ\HD_cfg.obj (HD_CFG)
  .\OBJ\AD.obj (AD)
  .\OBJ\Buzzer.obj (BUZZER)
  .\OBJ\LED.obj (LED)
  .\OBJ\Key.obj (KEY)
  .\OBJ\SSP.obj (SSP)
  .\OBJ\LCD.obj (LCD)
  .\OBJ\IIC.obj (IIC)
  .\OBJ\Main.obj (MAIN)
  .\OBJ\System.obj (SYSTEM)
  .\OBJ\Script.obj (SCRIPT)
  .\OBJ\Time.obj (TIME)
  .\OBJ\TempCtr.obj (TEMPCTR)
  .\OBJ\TableFunc.obj (TABLEFUNC)
  .\OBJ\Tables.obj (TABLES)
  .\SRC\SinoLib.LIB (BCD8TOHEX)
  .\SRC\SinoLib.LIB (HEX8TOBCD)
  .\OBJ\math.obj (MATH)
  C:\KEIL\C51\LIB\C51S.LIB (?C_INIT)
  C:\KEIL\C51\LIB\C51S.LIB (?C?CLDPTR)
  C:\KEIL\C51\LIB\C51S.LIB (?C?CLDOPTR)
  C:\KEIL\C51\LIB\C51S.LIB (?C?CILDPTR)
  C:\KEIL\C51\LIB\C51S.LIB (?C?CILDOPTR)
  C:\KEIL\C51\LIB\C51S.LIB (?C?CSTPTR)
  C:\KEIL\C51\LIB\C51S.LIB (?C?CSTOPTR)
  C:\KEIL\C51\LIB\C51S.LIB (?C?IMUL)
  C:\KEIL\C51\LIB\C51S.LIB (?C?UIDIV)
  C:\KEIL\C51\LIB\C51S.LIB (?C?ILDOPTR)
  C:\KEIL\C51\LIB\C51S.LIB (?C?ISTOPTR)
  C:\KEIL\C51\LIB\C51S.LIB (?C?OFFXADD)


LINK MAP OF MODULE:  .\OBJ\Actigrains (?C_STARTUP)


            TYPE    BASE      LENGTH    RELOCATION   SEGMENT NAME
            -----------------------------------------------------

            * * * * * * *   D A T A   M E M O R Y   * * * * * * *
            REG     0000H     0008H     ABSOLUTE     "REG BANK 0"
            DATA    0008H     0014H     UNIT         ?DT?SYSTEM
            DATA    001CH     0004H     UNIT         ?DT?AD
            DATA    0020H     0001H     BIT_ADDR     ?BA?HD_CFG
            DATA    0021H     0004H     BIT_ADDR     ?BA?LCD
            DATA    0025H     0005H     BIT_ADDR     ?BA?MAIN
            BIT     002AH.0   0000H.1   UNIT         ?BI?KEY
BL51 BANKED LINKER/LOCATER V6.22                                                      01/05/2016  13:28:04  PAGE 2


            BIT     002AH.1   0000H.1   UNIT         ?BI?IIC
            BIT     002AH.2   0000H.1   UNIT         _BIT_GROUP_
                    002AH.3   0000H.5                *** GAP ***
            DATA    002BH     000EH     UNIT         _DATA_GROUP_
            DATA    0039H     000BH     UNIT         ?DT?KEY
            DATA    0044H     000BH     UNIT         ?DT?SCRIPT
            DATA    004FH     0009H     UNIT         ?DT?TEMPCTR
            DATA    0058H     0008H     UNIT         ?DT?LCD
            DATA    0060H     0006H     UNIT         ?DT?BUZZER
            DATA    0066H     0006H     UNIT         ?DT?TIME
            DATA    006CH     0003H     UNIT         ?DT?LED
            DATA    006FH     0002H     UNIT         ?DT?HD_CFG
            DATA    0071H     0001H     UNIT         ?DT?MAIN
            IDATA   0072H     0031H     UNIT         ?ID?AD
            IDATA   00A3H     001EH     UNIT         ?ID?SYSTEM
            IDATA   00C1H     0018H     UNIT         ?ID?SCRIPT
            IDATA   00D9H     000AH     UNIT         ?ID?LCD
            IDATA   00E3H     0001H     UNIT         ?ID?SSP
            IDATA   00E4H     0001H     UNIT         ?STACK

            * * * * * * *  X D A T A   M E M O R Y  * * * * * * *
            XDATA   0000H     0029H     UNIT         ?XD?SSP
            XDATA   0029H     001DH     UNIT         ?XD?LCD
            XDATA   0046H     0006H     UNIT         ?XD?SYSTEM
            XDATA   004CH     0002H     UNIT         ?XD?HD_CFG
            XDATA   004EH     0002H     UNIT         ?XD?LED
            XDATA   0050H     0002H     UNIT         ?XD?IIC
            XDATA   0052H     0001H     UNIT         ?XD?KEY
                    0053H     04ADH                  *** GAP ***
            XDATA   0500H     001CH     ABSOLUTE     

            * * * * * * *   C O D E   M E M O R Y   * * * * * * *
            CODE    0000H     0003H     ABSOLUTE     
            CODE    0003H     0027H     UNIT         ?PR?I2C_ACK?IIC
                    002AH     0001H                  *** GAP ***
            CODE    002BH     0003H     ABSOLUTE     
            CODE    002EH     0004H     UNIT         ?PR?_LEDON?LED
                    0032H     0001H                  *** GAP ***
            CODE    0033H     0003H     ABSOLUTE     
            CODE    0036H     0025H     UNIT         ?PR?TIMER3_ISP?HD_CFG
            CODE    005BH     0003H     ABSOLUTE     
            CODE    005EH     0A17H     UNIT         ?PR?SETUPPROC?SYSTEM
            CODE    0A75H     0A0BH     UNIT         ?CO?SCRIPT
            CODE    1480H     057FH     UNIT         ?PR?RUNPROC?SYSTEM
            CODE    19FFH     043DH     UNIT         ?PR?_FUNCRUNDISP?SYSTEM
            CODE    1E3CH     03DCH     UNIT         ?PR?_FUNCSETDISP?SYSTEM
            CODE    2218H     030DH     UNIT         ?PR?_SETCURSCRIPT?SCRIPT
            CODE    2525H     02D7H     UNIT         ?PR?_LOADVARPARAM?SYSTEM
            CODE    27FCH     0260H     UNIT         ?CO?TABLES
            CODE    2A5CH     0232H     UNIT         ?PR?_SETBOTTEMP?SCRIPT
            CODE    2C8EH     021CH     UNIT         ?PR?_OTHERCMDS?SCRIPT
            CODE    2EAAH     01E5H     UNIT         ?PR?_LCDPROC?LCD
            CODE    308FH     01BCH     UNIT         ?CO?TABLEFUNC
            CODE    324BH     01AAH     UNIT         ?PR?LCDDISPGIF?LCD
            CODE    33F5H     01A7H     UNIT         ?C?LIB_CODE
            CODE    359CH     01A1H     UNIT         ?PR?_LCDDISPZONE4?LCD
            CODE    373DH     019DH     UNIT         ?PR?WARMPROC?SYSTEM
BL51 BANKED LINKER/LOCATER V6.22                                                      01/05/2016  13:28:04  PAGE 3


            CODE    38DAH     016DH     UNIT         ?PR?ENTERRUN?SYSTEM
            CODE    3A47H     013FH     UNIT         ?PR?_SETCUPSWATER?SYSTEM
            CODE    3B86H     013EH     UNIT         ?PR?SELFCHECKPROC?SYSTEM
            CODE    3CC4H     012FH     UNIT         ?CO?SYSTEM
            CODE    3DF3H     0110H     UNIT         ?PR?_SETDEFCOOKTIME?SYSTEM
            CODE    3F03H     00FFH     UNIT         ?PR?SCRIPTPROC?SCRIPT
            CODE    4002H     00F8H     UNIT         ?PR?JUDGETIMEVALID?SYSTEM
            CODE    40FAH     00F7H     UNIT         ?PR?ADCPROC?AD
            CODE    41F1H     00F6H     UNIT         ?PR?FAULTCHECKPROC?SYSTEM
            CODE    42E7H     00E5H     UNIT         ?PR?_LCDDISPSELFCHK?LCD
            CODE    43CCH     00DDH     UNIT         ?PR?_LCDDISPWATERML?LCD
            CODE    44A9H     00D8H     UNIT         ?PR?_LCDDISPMOVIE?LCD
            CODE    4581H     00D2H     UNIT         ?PR?ENTERRESET?SYSTEM
            CODE    4653H     00D0H     UNIT         ?PR?_SETDIYMODEBYDIY?SYSTEM
            CODE    4723H     00C3H     UNIT         ?PR?_SORT16?AD
            CODE    47E6H     00C0H     UNIT         ?PR?ADC_ISP?AD
            CODE    48A6H     00BDH     UNIT         ?PR?_LCDDISPZONE3?LCD
            CODE    4963H     00BCH     UNIT         ?PR?_BYTIME_CHGSTAGE?SCRIPT
            CODE    4A1FH     00B1H     UNIT         ?PR?_HEAT_CTR?SCRIPT
            CODE    4AD0H     00A8H     UNIT         ?PR?GETKEYVAL?KEY
            CODE    4B78H     00A4H     UNIT         ?PR?_LCDDISPFOODCUPS?LCD
            CODE    4C1CH     009AH     UNIT         ?PR?_GETDEGREE?AD
            CODE    4CB6H     0096H     UNIT         ?PR?LEDPROC?LED
            CODE    4D4CH     0092H     UNIT         ?PR?_WRITEFLASH?SSP
            CODE    4DDEH     008EH     UNIT         ?PR?_DICHOTOMY_SEARCH?AD
            CODE    4E6CH     008EH     UNIT         ?PR?HEATPROC?TEMPCTR
            CODE    4EFAH     008CH     UNIT         ?C_C51STARTUP
            CODE    4F86H     0082H     UNIT         ?CO?LCD
            CODE    5008H     0081H     UNIT         ?PR?SOUNDPROC?BUZZER
            CODE    5089H     007FH     UNIT         ?PR?GETPOWERBYDT?SCRIPT
            CODE    5108H     0075H     UNIT         ?PR?KEYPROC?KEY
            CODE    517DH     0075H     UNIT         ?PR?_LCDDISPZONE1?LCD
            CODE    51F2H     0074H     UNIT         ?PR?ENTERWARM?SYSTEM
            CODE    5266H     0070H     UNIT         ?C_INITSEG
            CODE    52D6H     006FH     UNIT         ?PR?_BYTEMP_CHGSTAGE?SCRIPT
            CODE    5345H     0068H     UNIT         ?PR?TIMER2_ISP?HD_CFG
            CODE    53ADH     0066H     UNIT         ?PR?I2C_READ?IIC
            CODE    5413H     0063H     UNIT         ?PR?_PLAYGIF?LCD
            CODE    5476H     005FH     UNIT         ?PR?ENTERSETUP?SYSTEM
            CODE    54D5H     005BH     UNIT         ?PR?_SETDEFCOOKTEMP?SYSTEM
            CODE    5530H     005AH     UNIT         ?PR?ENTERDEFAULT?SYSTEM
            CODE    558AH     0057H     UNIT         ?PR?_LCDDISPCOOKTEMP?LCD
            CODE    55E1H     0053H     UNIT         ?PR?_LCDDISPZONE2?LCD
            CODE    5634H     0052H     UNIT         ?PR?_LCDDISPMENUNUM?LCD
            CODE    5686H     0050H     UNIT         ?PR?_LCDDISPCOOKTIME?LCD
            CODE    56D6H     0050H     UNIT         ?PR?_I2C_SENDBYTE?IIC
            CODE    5726H     0045H     UNIT         ?PR?MAIN?MAIN
            CODE    576BH     0044H     UNIT         ?PR?PORT_INIT?HD_CFG
            CODE    57AFH     0043H     UNIT         ?PR?_DECTIME?TIME
            CODE    57F2H     003DH     UNIT         ?PR?_LCDDISPPEOPLENUM?LCD
            CODE    582FH     003CH     UNIT         ?PR?I2C_RECBYTE?IIC
            CODE    586BH     003CH     UNIT         ?PR?UIPROC?SYSTEM
            CODE    58A7H     003BH     UNIT         ?PR?AUTOTESTACTIVATE?SYSTEM
            CODE    58E2H     0039H     UNIT         ?PR?_ERASEFLASH?SSP
            CODE    591BH     0039H     UNIT         ?PR?_LCDDISPTEXTURE?LCD
            CODE    5954H     0038H     UNIT         ?PR?_LCDDISPNUM_LO?LCD
            CODE    598CH     0036H     UNIT         ?PR?_LCDDISPNUM_HI?LCD
BL51 BANKED LINKER/LOCATER V6.22                                                      01/05/2016  13:28:04  PAGE 4


            CODE    59C2H     0034H     UNIT         ?PR?_INCTIME_MIN?TIME
            CODE    59F6H     0032H     UNIT         ?PR?POWERDOWNPROC?SYSTEM
            CODE    5A28H     002FH     UNIT         ?PR?KEEPTEMPPROC?TEMPCTR
            CODE    5A57H     002CH     UNIT         ?CO?BUZZER
            CODE    5A83H     002BH     UNIT         ?PR?_READFLASH?SSP
            CODE    5AAEH     002AH     UNIT         ?PR?LCD_INIT?LCD
            CODE    5AD8H     002AH     UNIT         ?PR?ERRORPROC?SYSTEM
            CODE    5B02H     0026H     UNIT         ?PR?_LCDDISPALL?LCD
            CODE    5B28H     0025H     UNIT         ?PR?LCDDISPERROR?LCD
            CODE    5B4DH     0024H     UNIT         ?PR?RESETCURSCRIPT?SCRIPT
            CODE    5B71H     0024H     UNIT         ?PR?_DELAY?DELAY
            CODE    5B95H     0021H     UNIT         ?PR?I2C_START?IIC
            CODE    5BB6H     0021H     UNIT         ?PR?I2C_STOP?IIC
            CODE    5BD7H     0020H     UNIT         ?PR?RESETPROC?SYSTEM
            CODE    5BF7H     001FH     UNIT         ?PR?_ADCSELCHANNEL?AD
            CODE    5C16H     001EH     UNIT         ?PR?TIMER3_INIT?HD_CFG
            CODE    5C34H     001DH     UNIT         ?PR?LCDCLEARNUM?LCD
            CODE    5C51H     001AH     UNIT         ?PR?SYSTEM_INIT?HD_CFG
            CODE    5C6BH     0018H     UNIT         ?PR?TIMER2_INIT?HD_CFG
            CODE    5C83H     0017H     UNIT         ?PR?ENTERPOWERDOWN?SYSTEM
            CODE    5C9AH     0016H     UNIT         ?PR?_INCTIME?TIME
            CODE    5CB0H     0015H     UNIT         ?PR?_DELAYS?IIC
            CODE    5CC5H     0014H     UNIT         ?PR?_HEX8TOBCD?HEX8TOBCD
            CODE    5CD9H     0013H     UNIT         ?PR?ADC_INIT?AD
            CODE    5CECH     0013H     UNIT         ?PR?_CHANGESCRIPTSTAGE?SCRIPT
            CODE    5CFFH     0012H     UNIT         ?PR?_BCD8TOHEX?BCD8TOHEX
            CODE    5D11H     0011H     UNIT         ?PR?SETSYSCLOCK?HD_CFG
            CODE    5D22H     000FH     UNIT         ?PR?_PLAYSOUND?BUZZER
            CODE    5D31H     000DH     UNIT         ?PR?IE_INIT?HD_CFG
            CODE    5D3EH     000CH     UNIT         ?PR?_ADCGETVAL?AD
            CODE    5D4AH     000BH     UNIT         ?PR?ISNEWKEY?KEY
            CODE    5D55H     000AH     UNIT         ?PR?GETKEY?KEY
            CODE    5D5FH     0007H     UNIT         ?PR?_ADCGETDATA?AD
            CODE    5D66H     0007H     UNIT         ?PR?_CLRLEDBLANK?LED
            CODE    5D6DH     0006H     UNIT         ?PR?_SETLEDBLANK?LED
            CODE    5D73H     0003H     UNIT         ?PR?GETSCRIPTSTAGE?SCRIPT
            CODE    5D76H     0002H     UNIT         ?CO?AD



OVERLAY MAP OF MODULE:   .\OBJ\Actigrains (?C_STARTUP)


SEGMENT                                  BIT_GROUP          DATA_GROUP 
  +--> CALLED SEGMENT                 START    LENGTH     START    LENGTH
-------------------------------------------------------------------------
?C_C51STARTUP                         -----    -----      -----    -----
  +--> ?PR?MAIN?MAIN
  +--> ?C_INITSEG

?PR?MAIN?MAIN                         -----    -----      -----    -----
  +--> ?PR?SYSTEM_INIT?HD_CFG
  +--> ?PR?ENTERRESET?SYSTEM
  +--> ?PR?ADCPROC?AD
  +--> ?PR?_LCDPROC?LCD
  +--> ?PR?LEDPROC?LED
  +--> ?PR?KEYPROC?KEY
BL51 BANKED LINKER/LOCATER V6.22                                                      01/05/2016  13:28:04  PAGE 5


  +--> ?PR?UIPROC?SYSTEM
  +--> ?PR?SOUNDPROC?BUZZER
  +--> ?PR?SCRIPTPROC?SCRIPT
  +--> ?PR?AUTOTESTACTIVATE?SYSTEM
  +--> ?PR?FAULTCHECKPROC?SYSTEM
  +--> ?PR?KEEPTEMPPROC?TEMPCTR
  +--> ?PR?HEATPROC?TEMPCTR

?PR?SYSTEM_INIT?HD_CFG                -----    -----      -----    -----
  +--> ?PR?SETSYSCLOCK?HD_CFG
  +--> ?PR?PORT_INIT?HD_CFG
  +--> ?PR?TIMER2_INIT?HD_CFG
  +--> ?PR?TIMER3_INIT?HD_CFG
  +--> ?PR?ADC_INIT?AD
  +--> ?PR?LCD_INIT?LCD
  +--> ?PR?IE_INIT?HD_CFG

?PR?SETSYSCLOCK?HD_CFG                -----    -----      -----    -----
  +--> ?PR?_DELAY?DELAY

?PR?ADC_INIT?AD                       -----    -----      -----    -----
  +--> ?PR?_ADCSELCHANNEL?AD

?PR?_ADCSELCHANNEL?AD                 -----    -----      -----    -----
  +--> ?CO?AD

?PR?ENTERRESET?SYSTEM                 -----    -----      -----    -----
  +--> ?PR?_READFLASH?SSP
  +--> ?PR?_ERASEFLASH?SSP
  +--> ?PR?_WRITEFLASH?SSP
  +--> ?PR?_LEDON?LED
  +--> ?CO?BUZZER
  +--> ?PR?_PLAYSOUND?BUZZER

?PR?_READFLASH?SSP                    -----    -----      002CH    0002H

?PR?_ERASEFLASH?SSP                   002AH.2  0000H.1    -----    -----

?PR?_WRITEFLASH?SSP                   002AH.2  0000H.1    002DH    0005H

?PR?ADCPROC?AD                        -----    -----      002BH    0004H
  +--> ?PR?_SORT16?AD
  +--> ?PR?_GETDEGREE?AD
  +--> ?PR?_ADCSELCHANNEL?AD
  +--> ?PR?_DELAY?DELAY

?PR?_SORT16?AD                        -----    -----      002FH    0009H

?PR?_GETDEGREE?AD                     -----    -----      002FH    0002H
  +--> ?CO?TABLES
  +--> ?PR?_DICHOTOMY_SEARCH?AD

?PR?_DICHOTOMY_SEARCH?AD              -----    -----      0031H    0008H

?PR?_LCDPROC?LCD                      -----    -----      002BH    0003H
  +--> ?PR?_LCDDISPMENUNUM?LCD
  +--> ?PR?_LCDDISPTEXTURE?LCD
BL51 BANKED LINKER/LOCATER V6.22                                                      01/05/2016  13:28:04  PAGE 6


  +--> ?PR?_LCDDISPPEOPLENUM?LCD
  +--> ?PR?_LCDDISPCOOKTEMP?LCD
  +--> ?PR?_LCDDISPCOOKTIME?LCD
  +--> ?PR?LCDDISPGIF?LCD
  +--> ?PR?_LCDDISPMOVIE?LCD
  +--> ?PR?_LCDDISPALL?LCD
  +--> ?PR?LCDDISPERROR?LCD
  +--> ?PR?_LCDDISPSELFCHK?LCD

?PR?_LCDDISPMENUNUM?LCD               002AH.2  0000H.1    -----    -----
  +--> ?CO?LCD
  +--> ?PR?_HEX8TOBCD?HEX8TOBCD

?PR?_LCDDISPTEXTURE?LCD               002AH.2  0000H.1    -----    -----

?PR?_LCDDISPPEOPLENUM?LCD             002AH.2  0000H.1    -----    -----
  +--> ?CO?LCD

?PR?_LCDDISPCOOKTEMP?LCD              002AH.2  0000H.1    0031H    0001H
  +--> ?PR?_HEX8TOBCD?HEX8TOBCD
  +--> ?CO?LCD

?PR?_LCDDISPCOOKTIME?LCD              002AH.2  0000H.1    002EH    0003H
  +--> ?PR?LCDCLEARNUM?LCD
  +--> ?PR?_LCDDISPNUM_LO?LCD
  +--> ?PR?_HEX8TOBCD?HEX8TOBCD
  +--> ?PR?_LCDDISPNUM_HI?LCD

?PR?_LCDDISPNUM_LO?LCD                -----    -----      -----    -----
  +--> ?CO?LCD

?PR?_LCDDISPNUM_HI?LCD                -----    -----      -----    -----
  +--> ?CO?LCD

?PR?LCDDISPERROR?LCD                  -----    -----      -----    -----
  +--> ?PR?_LCDDISPALL?LCD
  +--> ?PR?_LCDDISPNUM_LO?LCD

?PR?_LCDDISPSELFCHK?LCD               -----    -----      002EH    0003H
  +--> ?PR?_ADCGETDATA?AD
  +--> ?PR?_LCDDISPALL?LCD
  +--> ?PR?_LCDDISPNUM_HI?LCD
  +--> ?PR?_LCDDISPNUM_LO?LCD
  +--> ?PR?_CLRLEDBLANK?LED
  +--> ?PR?_LEDON?LED
  +--> ?PR?_LCDDISPCOOKTEMP?LCD

?PR?KEYPROC?KEY                       -----    -----      002BH    0002H
  +--> ?PR?GETKEYVAL?KEY
  +--> ?CO?BUZZER
  +--> ?PR?_PLAYSOUND?BUZZER

?PR?GETKEYVAL?KEY                     -----    -----      -----    -----
  +--> ?PR?I2C_READ?IIC

?PR?I2C_READ?IIC                      -----    -----      -----    -----
  +--> ?PR?I2C_STOP?IIC
BL51 BANKED LINKER/LOCATER V6.22                                                      01/05/2016  13:28:04  PAGE 7


  +--> ?PR?I2C_START?IIC
  +--> ?PR?_I2C_SENDBYTE?IIC
  +--> ?PR?I2C_RECBYTE?IIC
  +--> ?PR?I2C_ACK?IIC
  +--> ?PR?_DELAYS?IIC

?PR?I2C_STOP?IIC                      -----    -----      -----    -----
  +--> ?PR?_DELAYS?IIC

?PR?_DELAYS?IIC                       -----    -----      002FH    0001H

?PR?I2C_START?IIC                     -----    -----      -----    -----
  +--> ?PR?_DELAYS?IIC

?PR?_I2C_SENDBYTE?IIC                 -----    -----      002DH    0002H
  +--> ?PR?_DELAYS?IIC

?PR?I2C_RECBYTE?IIC                   -----    -----      002DH    0002H
  +--> ?PR?_DELAYS?IIC

?PR?I2C_ACK?IIC                       -----    -----      -----    -----
  +--> ?PR?_DELAYS?IIC

?PR?UIPROC?SYSTEM                     -----    -----      -----    -----
  +--> ?PR?RESETPROC?SYSTEM
  +--> ?PR?SETUPPROC?SYSTEM
  +--> ?PR?RUNPROC?SYSTEM
  +--> ?PR?WARMPROC?SYSTEM
  +--> ?PR?POWERDOWNPROC?SYSTEM
  +--> ?PR?ERRORPROC?SYSTEM
  +--> ?PR?SELFCHECKPROC?SYSTEM

?PR?RESETPROC?SYSTEM                  -----    -----      -----    -----
  +--> ?PR?ENTERDEFAULT?SYSTEM

?PR?ENTERDEFAULT?SYSTEM               -----    -----      -----    -----
  +--> ?PR?ENTERSETUP?SYSTEM
  +--> ?PR?_SETDIYMODEBYDIY?SYSTEM
  +--> ?PR?_SETDEFCOOKTIME?SYSTEM
  +--> ?PR?_SETDEFCOOKTEMP?SYSTEM
  +--> ?PR?_FUNCSETDISP?SYSTEM

?PR?ENTERSETUP?SYSTEM                 -----    -----      -----    -----
  +--> ?PR?RESETCURSCRIPT?SCRIPT
  +--> ?PR?_FUNCSETDISP?SYSTEM
  +--> ?PR?_LEDON?LED

?PR?_FUNCSETDISP?SYSTEM               -----    -----      002FH    0001H
  +--> ?PR?_CLRLEDBLANK?LED
  +--> ?PR?_SETLEDBLANK?LED
  +--> ?PR?_LCDDISPZONE1?LCD
  +--> ?PR?_LCDDISPZONE2?LCD
  +--> ?PR?_LCDDISPZONE3?LCD
  +--> ?PR?_LCDDISPZONE4?LCD
  +--> ?CO?LCD
  +--> ?PR?_PLAYGIF?LCD
  +--> ?PR?_LEDON?LED
BL51 BANKED LINKER/LOCATER V6.22                                                      01/05/2016  13:28:04  PAGE 8



?PR?_LCDDISPZONE3?LCD                 -----    -----      0031H    0006H
  +--> ?PR?_LCDDISPFOODCUPS?LCD
  +--> ?PR?_LCDDISPWATERML?LCD

?PR?_LCDDISPFOODCUPS?LCD              002AH.2  0000H.1    -----    -----
  +--> ?CO?LCD

?PR?_LCDDISPWATERML?LCD               002AH.2  0000H.1    -----    -----
  +--> ?CO?LCD

?PR?_LCDDISPZONE4?LCD                 -----    -----      0031H    0006H

?PR?_PLAYGIF?LCD                      -----    -----      0031H    0002H

?PR?_SETDIYMODEBYDIY?SYSTEM           -----    -----      002FH    0001H
  +--> ?PR?_SETDEFCOOKTIME?SYSTEM
  +--> ?PR?_SETDEFCOOKTEMP?SYSTEM

?PR?_SETDEFCOOKTIME?SYSTEM            -----    -----      0030H    0001H
  +--> ?CO?SYSTEM
  +--> ?PR?_BCD8TOHEX?BCD8TOHEX

?PR?_SETDEFCOOKTEMP?SYSTEM            -----    -----      -----    -----
  +--> ?CO?SYSTEM

?PR?SETUPPROC?SYSTEM                  -----    -----      002BH    0002H
  +--> ?PR?GETKEY?KEY
  +--> ?PR?_FUNCSETDISP?SYSTEM
  +--> ?PR?_LEDON?LED
  +--> ?PR?ISNEWKEY?KEY
  +--> ?PR?ENTERSETUP?SYSTEM
  +--> ?PR?_SETDIYMODEBYDIY?SYSTEM
  +--> ?PR?_SETDEFCOOKTIME?SYSTEM
  +--> ?PR?_SETDEFCOOKTEMP?SYSTEM
  +--> ?PR?ENTERDEFAULT?SYSTEM
  +--> ?CO?BUZZER
  +--> ?PR?_PLAYSOUND?BUZZER
  +--> ?PR?ENTERPOWERDOWN?SYSTEM
  +--> ?PR?ENTERWARM?SYSTEM
  +--> ?PR?_ERASEFLASH?SSP
  +--> ?PR?_WRITEFLASH?SSP
  +--> ?PR?_SETCUPSWATER?SYSTEM
  +--> ?PR?JUDGETIMEVALID?SYSTEM
  +--> ?PR?ENTERRUN?SYSTEM
  +--> ?PR?_CLRLEDBLANK?LED

?PR?ENTERPOWERDOWN?SYSTEM             -----    -----      -----    -----
  +--> ?PR?RESETCURSCRIPT?SCRIPT

?PR?ENTERWARM?SYSTEM                  -----    -----      -----    -----
  +--> ?PR?RESETCURSCRIPT?SCRIPT
  +--> ?PR?_LCDDISPZONE1?LCD
  +--> ?PR?_LCDDISPZONE2?LCD
  +--> ?PR?_LCDDISPZONE3?LCD
  +--> ?PR?_LCDDISPZONE4?LCD
  +--> ?PR?_PLAYGIF?LCD
BL51 BANKED LINKER/LOCATER V6.22                                                      01/05/2016  13:28:04  PAGE 9


  +--> ?PR?_CLRLEDBLANK?LED
  +--> ?PR?_SETLEDBLANK?LED
  +--> ?PR?_LEDON?LED

?PR?_SETCUPSWATER?SYSTEM              -----    -----      002DH    0001H
  +--> ?CO?SYSTEM

?PR?ENTERRUN?SYSTEM                   -----    -----      -----    -----
  +--> ?PR?_ERASEFLASH?SSP
  +--> ?PR?_WRITEFLASH?SSP
  +--> ?PR?_FUNCRUNDISP?SYSTEM
  +--> ?PR?_LOADVARPARAM?SYSTEM
  +--> ?PR?_SETCURSCRIPT?SCRIPT
  +--> ?PR?_ADCGETDATA?AD
  +--> ?PR?_LEDON?LED
  +--> ?CO?BUZZER
  +--> ?PR?_PLAYSOUND?BUZZER

?PR?_FUNCRUNDISP?SYSTEM               -----    -----      002DH    0003H
  +--> ?PR?_CLRLEDBLANK?LED
  +--> ?PR?_SETLEDBLANK?LED
  +--> ?PR?_LCDDISPZONE1?LCD
  +--> ?PR?_LCDDISPZONE2?LCD
  +--> ?PR?_LCDDISPZONE3?LCD
  +--> ?PR?_LCDDISPZONE4?LCD
  +--> ?PR?_LEDON?LED
  +--> ?CO?LCD
  +--> ?PR?_PLAYGIF?LCD
  +--> ?PR?GETSCRIPTSTAGE?SCRIPT
  +--> ?PR?_HEX8TOBCD?HEX8TOBCD
  +--> ?PR?_ADCGETDATA?AD

?PR?_LOADVARPARAM?SYSTEM              -----    -----      002DH    0002H
  +--> ?CO?TABLEFUNC

?PR?_SETCURSCRIPT?SCRIPT              -----    -----      -----    -----
  +--> ?CO?SCRIPT
  +--> ?PR?RESETCURSCRIPT?SCRIPT

?PR?RUNPROC?SYSTEM                    -----    -----      002BH    0002H
  +--> ?PR?GETKEY?KEY
  +--> ?PR?ISNEWKEY?KEY
  +--> ?PR?_FUNCRUNDISP?SYSTEM
  +--> ?CO?BUZZER
  +--> ?PR?_PLAYSOUND?BUZZER
  +--> ?PR?ENTERDEFAULT?SYSTEM
  +--> ?PR?JUDGETIMEVALID?SYSTEM
  +--> ?PR?_SETCUPSWATER?SYSTEM
  +--> ?PR?ENTERRUN?SYSTEM
  +--> ?PR?RESETCURSCRIPT?SCRIPT
  +--> ?PR?_DECTIME?TIME
  +--> ?PR?ENTERWARM?SYSTEM

?PR?WARMPROC?SYSTEM                   -----    -----      002BH    0004H
  +--> ?PR?_ADCGETDATA?AD
  +--> ?PR?GETKEY?KEY
  +--> ?PR?_INCTIME?TIME
BL51 BANKED LINKER/LOCATER V6.22                                                      01/05/2016  13:28:04  PAGE 10


  +--> ?PR?ENTERSETUP?SYSTEM
  +--> ?PR?_LCDDISPZONE1?LCD
  +--> ?PR?_LCDDISPZONE2?LCD
  +--> ?PR?_LCDDISPZONE3?LCD
  +--> ?PR?_LCDDISPZONE4?LCD
  +--> ?PR?_CLRLEDBLANK?LED
  +--> ?PR?_LEDON?LED
  +--> ?PR?_SETLEDBLANK?LED
  +--> ?PR?ISNEWKEY?KEY
  +--> ?CO?BUZZER
  +--> ?PR?_PLAYSOUND?BUZZER
  +--> ?PR?ENTERDEFAULT?SYSTEM

?PR?_INCTIME?TIME                     -----    -----      -----    -----
  +--> ?PR?_INCTIME_MIN?TIME

?PR?POWERDOWNPROC?SYSTEM              -----    -----      -----    -----
  +--> ?PR?GETKEY?KEY
  +--> ?PR?ISNEWKEY?KEY
  +--> ?PR?ENTERDEFAULT?SYSTEM
  +--> ?CO?BUZZER
  +--> ?PR?_PLAYSOUND?BUZZER
  +--> ?PR?_CLRLEDBLANK?LED

?PR?ERRORPROC?SYSTEM                  -----    -----      -----    -----
  +--> ?PR?GETKEY?KEY
  +--> ?PR?ISNEWKEY?KEY
  +--> ?PR?ENTERSETUP?SYSTEM
  +--> ?CO?BUZZER
  +--> ?PR?_PLAYSOUND?BUZZER

?PR?SELFCHECKPROC?SYSTEM              -----    -----      002BH    0002H
  +--> ?PR?GETKEY?KEY
  +--> ?PR?ISNEWKEY?KEY
  +--> ?PR?ENTERSETUP?SYSTEM
  +--> ?CO?BUZZER
  +--> ?PR?_PLAYSOUND?BUZZER

?PR?SOUNDPROC?BUZZER                  -----    -----      -----    -----
  +--> ?CO?BUZZER

?PR?SCRIPTPROC?SCRIPT                 -----    -----      002BH    0001H
  +--> ?PR?_SETBOTTEMP?SCRIPT
  +--> ?PR?_BYTEMP_CHGSTAGE?SCRIPT
  +--> ?PR?_BYTIME_CHGSTAGE?SCRIPT
  +--> ?PR?_HEAT_CTR?SCRIPT
  +--> ?PR?_OTHERCMDS?SCRIPT
  +--> ?PR?_CHANGESCRIPTSTAGE?SCRIPT
  +--> ?PR?ENTERRESET?SYSTEM

?PR?_SETBOTTEMP?SCRIPT                -----    -----      002CH    0002H
  +--> ?PR?_ADCGETDATA?AD

?PR?_BYTEMP_CHGSTAGE?SCRIPT           -----    -----      002CH    0005H
  +--> ?PR?_ADCGETDATA?AD

?PR?_BYTIME_CHGSTAGE?SCRIPT           -----    -----      002CH    0002H
BL51 BANKED LINKER/LOCATER V6.22                                                      01/05/2016  13:28:04  PAGE 11



?PR?_HEAT_CTR?SCRIPT                  -----    -----      002CH    0004H
  +--> ?PR?_ADCGETDATA?AD

?PR?_OTHERCMDS?SCRIPT                 -----    -----      002CH    0005H
  +--> ?PR?_ADCGETDATA?AD
  +--> ?PR?ENTERWARM?SYSTEM
  +--> ?CO?BUZZER
  +--> ?PR?_PLAYSOUND?BUZZER
  +--> ?PR?GETPOWERBYDT?SCRIPT

?PR?GETPOWERBYDT?SCRIPT               -----    -----      -----    -----
  +--> ?PR?_ADCGETDATA?AD

?PR?AUTOTESTACTIVATE?SYSTEM           -----    -----      -----    -----
  +--> ?CO?BUZZER
  +--> ?PR?_PLAYSOUND?BUZZER

?PR?FAULTCHECKPROC?SYSTEM             -----    -----      002BH    0006H
  +--> ?PR?_ADCGETDATA?AD
  +--> ?PR?_ADCGETVAL?AD
  +--> ?CO?BUZZER
  +--> ?PR?_PLAYSOUND?BUZZER

?PR?KEEPTEMPPROC?TEMPCTR              -----    -----      -----    -----
  +--> ?PR?_ADCGETDATA?AD



SYMBOL TABLE OF MODULE:  .\OBJ\Actigrains (?C_STARTUP)

  VALUE           TYPE          NAME
  ----------------------------------

  -------         MODULE        ?C_STARTUP
  C:4EFAH         SEGMENT       ?C_C51STARTUP
  I:00E4H         SEGMENT       ?STACK
  C:0000H         PUBLIC        ?C_STARTUP
  D:00E0H         SYMBOL        ACC
  D:00F0H         SYMBOL        B
  D:0083H         SYMBOL        DPH
  D:0082H         SYMBOL        DPL
  N:0000H         SYMBOL        IBPSTACK
  N:0100H         SYMBOL        IBPSTACKTOP
  N:0080H         SYMBOL        IDATALEN
  C:4EFDH         SYMBOL        IDATALOOP
  N:0000H         SYMBOL        PBPSTACK
  N:0100H         SYMBOL        PBPSTACKTOP
  N:0000H         SYMBOL        PDATALEN
  N:0000H         SYMBOL        PDATASTART
  N:0000H         SYMBOL        PPAGE
  N:0000H         SYMBOL        PPAGEENABLE
  D:00A0H         SYMBOL        PPAGE_SFR
  D:0081H         SYMBOL        SP
  C:4EFAH         SYMBOL        STARTUP1
  N:0000H         SYMBOL        XBPSTACK
  N:0000H         SYMBOL        XBPSTACKTOP
BL51 BANKED LINKER/LOCATER V6.22                                                      01/05/2016  13:28:04  PAGE 12


  N:0000H         SYMBOL        XDATALEN
  N:0000H         SYMBOL        XDATASTART
  C:0000H         LINE#         126
  C:4EFAH         LINE#         133
  C:4EFCH         LINE#         134
  C:4EFDH         LINE#         135
  C:4EFEH         LINE#         136
  C:4F00H         LINE#         185
  C:4F03H         LINE#         196
  -------         ENDMOD        ?C_STARTUP

  -------         MODULE        HD_CFG
  C:0000H         SYMBOL        _ICE_DUMMY_
  D:0080H         PUBLIC        P0
  D:0090H         PUBLIC        P1
  D:00A0H         PUBLIC        P2
  D:00B0H         PUBLIC        P3
  C:5345H         PUBLIC        Timer2_ISP
  D:00C0H         PUBLIC        P4
  C:0036H         PUBLIC        Timer3_ISP
  D:0080H         PUBLIC        P5
  B:00A8H.7       PUBLIC        EA
  D:00A8H         PUBLIC        IEN0
  D:00A9H         PUBLIC        IEN1
  B:0080H.3       PUBLIC        P0_3
  D:00E1H         PUBLIC        P0CR
  D:00E2H         PUBLIC        P1CR
  D:00E3H         PUBLIC        P2CR
  D:00E4H         PUBLIC        P3CR
  D:00E5H         PUBLIC        P4CR
  D:00E1H         PUBLIC        P5CR
  C:5C51H         PUBLIC        System_INIT
  D:00BAH         PUBLIC        IENC
  D:00CBH         PUBLIC        RCAP2H
  D:00EFH         PUBLIC        P0OS
  C:5D31H         SYMBOL        IE_INIT
  D:00CAH         PUBLIC        RCAP2L
  D:00B6H         PUBLIC        P0SS
  B:0020H.1       PUBLIC        bSys1S_BookTime
  D:009CH         PUBLIC        P1SS
  B:0020H.0       PUBLIC        bSys1S_CookTime
  D:009DH         PUBLIC        P2SS
  D:009EH         PUBLIC        P3SS
  D:00B2H         PUBLIC        CLKCON
  C:576BH         SYMBOL        Port_INIT
  X:004CH         PUBLIC        g_u16RelayDelayCnt
  D:006FH         PUBLIC        g_u8PwrOnlineCnt
  C:5C6BH         SYMBOL        Timer2_INIT
  B:00C8H.7       PUBLIC        TF2
  D:0086H         PUBLIC        INSCON
  C:5C16H         SYMBOL        Timer3_INIT
  B:0088H.7       PUBLIC        TF3
  D:00CDH         PUBLIC        TH2
  D:008DH         PUBLIC        TH3
  D:00BBH         PUBLIC        IENC1
  D:0020H         PUBLIC        SysTime
  D:00CCH         PUBLIC        TL2
BL51 BANKED LINKER/LOCATER V6.22                                                      01/05/2016  13:28:04  PAGE 13


  D:008CH         PUBLIC        TL3
  B:00C8H.2       PUBLIC        TR2
  B:0088H.2       PUBLIC        TR3
  B:0088H.4       PUBLIC        T3PS0
  B:0088H.5       PUBLIC        T3PS1
  C:5D11H         SYMBOL        SetSysClock
  B:0088H.0       PUBLIC        T3CLKS0
  D:00E9H         PUBLIC        P0PCR
  B:0088H.1       PUBLIC        T3CLKS1
  D:00EAH         PUBLIC        P1PCR
  D:00C9H         PUBLIC        T2MOD
  D:00C8H         PUBLIC        T2CON
  D:00EBH         PUBLIC        P2PCR
  D:00ECH         PUBLIC        P3PCR
  D:00EDH         PUBLIC        P4PCR
  D:00E9H         PUBLIC        P5PCR
  D:0070H         PUBLIC        m_u8SysTickCnt
  -------         PROC          SYSTEM_INIT
  C:5C51H         LINE#         59
  C:5C51H         LINE#         60
  C:5C51H         LINE#         61
  C:5C53H         LINE#         62
  C:5C56H         LINE#         63
  C:5C59H         LINE#         64
  C:5C5CH         LINE#         65
  C:5C5FH         LINE#         66
  C:5C62H         LINE#         67
  C:5C65H         LINE#         69
  C:5C68H         LINE#         70
  C:5C6AH         LINE#         71
  -------         ENDPROC       SYSTEM_INIT
  -------         PROC          SETSYSCLOCK
  C:5D11H         LINE#         81
  C:5D11H         LINE#         82
  C:5D11H         LINE#         83
  C:5D14H         LINE#         84
  C:5D17H         LINE#         85
  C:5D1EH         LINE#         86
  C:5D21H         LINE#         87
  -------         ENDPROC       SETSYSCLOCK
  -------         PROC          PORT_INIT
  C:576BH         LINE#         97
  C:576BH         LINE#         98
  C:576BH         LINE#         149
  C:576EH         LINE#         150
  C:5771H         LINE#         151
  C:5774H         LINE#         152
  C:5777H         LINE#         155
  C:577AH         LINE#         156
  C:577DH         LINE#         157
  C:577FH         LINE#         158
  C:5781H         LINE#         160
  C:5784H         LINE#         161
  C:5786H         LINE#         162
  C:5788H         LINE#         164
  C:578BH         LINE#         165
  C:578DH         LINE#         166
BL51 BANKED LINKER/LOCATER V6.22                                                      01/05/2016  13:28:04  PAGE 14


  C:578FH         LINE#         168
  C:5792H         LINE#         169
  C:5794H         LINE#         170
  C:5796H         LINE#         172
  C:5799H         LINE#         173
  C:579CH         LINE#         174
  C:579EH         LINE#         176
  C:57A4H         LINE#         177
  C:57A7H         LINE#         178
  C:57A9H         LINE#         179
  C:57ABH         LINE#         180
  C:57AEH         LINE#         181
  -------         ENDPROC       PORT_INIT
  -------         PROC          TIMER2_INIT
  C:5C6BH         LINE#         191
  C:5C6BH         LINE#         192
  C:5C6BH         LINE#         193
  C:5C6DH         LINE#         194
  C:5C6FH         LINE#         195
  C:5C72H         LINE#         196
  C:5C74H         LINE#         197
  C:5C77H         LINE#         198
  C:5C7AH         LINE#         199
  C:5C7DH         LINE#         200
  C:5C80H         LINE#         201
  C:5C82H         LINE#         202
  -------         ENDPROC       TIMER2_INIT
  -------         PROC          TIMER3_INIT
  C:5C16H         LINE#         232
  C:5C16H         LINE#         233
  C:5C16H         LINE#         234
  C:5C1CH         LINE#         235
  C:5C1EH         LINE#         236
  C:5C20H         LINE#         237
  C:5C22H         LINE#         238
  C:5C24H         LINE#         239
  C:5C26H         LINE#         240
  C:5C28H         LINE#         241
  C:5C2BH         LINE#         242
  C:5C2EH         LINE#         243
  C:5C30H         LINE#         244
  C:5C33H         LINE#         245
  -------         ENDPROC       TIMER3_INIT
  -------         PROC          IE_INIT
  C:5D31H         LINE#         254
  C:5D31H         LINE#         255
  C:5D31H         LINE#         260
  C:5D34H         LINE#         261
  C:5D37H         LINE#         262
  C:5D3AH         LINE#         263
  C:5D3DH         LINE#         264
  -------         ENDPROC       IE_INIT
  -------         PROC          TIMER2_ISP
  -------         DO            
  D:0007H         SYMBOL        u8Bankbak
  -------         ENDDO         
  C:5345H         LINE#         274
BL51 BANKED LINKER/LOCATER V6.22                                                      01/05/2016  13:28:04  PAGE 15


  C:5352H         LINE#         276
  C:5354H         LINE#         278
  C:5357H         LINE#         279
  C:5359H         LINE#         280
  C:535BH         LINE#         282
  C:535DH         LINE#         284
  C:5364H         LINE#         285
  C:5364H         LINE#         286
  C:5367H         LINE#         287
  C:5369H         LINE#         288
  C:5369H         LINE#         290
  C:536CH         LINE#         291
  C:536CH         LINE#         292
  C:536FH         LINE#         293
  C:536FH         LINE#         294
  C:5372H         LINE#         295
  C:5372H         LINE#         296
  C:5374H         LINE#         297
  C:5376H         LINE#         299
  C:5376H         LINE#         300
  C:5378H         LINE#         301
  C:5378H         LINE#         302
  C:5378H         LINE#         304
  C:5387H         LINE#         305
  C:5387H         LINE#         306
  C:5393H         LINE#         307
  C:5393H         LINE#         308
  C:5395H         LINE#         310
  C:5395H         LINE#         311
  C:539CH         LINE#         312
  C:539EH         LINE#         313
  C:539EH         LINE#         315
  C:53A0H         LINE#         316
  C:53A2H         LINE#         317
  -------         ENDPROC       TIMER2_ISP
  -------         PROC          TIMER3_ISP
  -------         DO            
  D:0007H         SYMBOL        u8Bankbak
  -------         ENDDO         
  C:0036H         LINE#         327
  C:003DH         LINE#         329
  C:003FH         LINE#         331
  C:0042H         LINE#         332
  C:0044H         LINE#         334
  C:004AH         LINE#         335
  C:004CH         LINE#         336
  C:004FH         LINE#         338
  C:0052H         LINE#         339
  C:0054H         LINE#         340
  C:0056H         LINE#         341
  -------         ENDPROC       TIMER3_ISP
  -------         ENDMOD        HD_CFG

  -------         MODULE        AD
  C:0000H         SYMBOL        _ICE_DUMMY_
  I:0072H         PUBLIC        g_u8ADResult
  D:0080H         PUBLIC        P0
BL51 BANKED LINKER/LOCATER V6.22                                                      01/05/2016  13:28:04  PAGE 16


  D:0090H         PUBLIC        P1
  I:0074H         PUBLIC        u16ADBuf
  D:00A0H         PUBLIC        P2
  D:00B0H         PUBLIC        P3
  D:00C0H         PUBLIC        P4
  D:0080H         PUBLIC        P5
  B:00A8H.7       PUBLIC        EA
  C:5D3EH         PUBLIC        _ADCGetVal
  D:0095H         PUBLIC        ADCH
  C:4723H         PUBLIC        _Sort16
  D:0097H         PUBLIC        ADDH
  C:47E6H         PUBLIC        ADC_ISP
  D:0096H         PUBLIC        ADDL
  D:0092H         PUBLIC        ADCON1
  I:0094H         PUBLIC        g_u16ADValue
  C:5C00H         SYMBOL        _ADCSelChannel
  I:0098H         PUBLIC        u16AdTempBuf
  D:0086H         PUBLIC        INSCON
  I:009EH         PUBLIC        u8AdVCnt
  D:0094H         PUBLIC        ADT
  I:009FH         PUBLIC        u16AdVValue
  D:001CH         PUBLIC        u8ADCnt
  C:5CD9H         PUBLIC        ADC_INIT
  C:40FAH         PUBLIC        ADCProc
  D:001DH         PUBLIC        u8CurCH
  D:0093H         PUBLIC        ADCON
  C:5D5FH         PUBLIC        _ADCGetData
  D:001EH         PUBLIC        u8ChgCnt
  C:5D76H         PUBLIC        CHNO2ID
  C:4DDEH         SYMBOL        _Dichotomy_Search
  C:4C1CH         SYMBOL        _GetDegree
  D:001FH         PUBLIC        u8CurCHID
  I:00A1H         PUBLIC        u16AdVBuf
  -------         PROC          ADC_ISP
  -------         DO            
  D:0004H         SYMBOL        u16AdTemp
  D:0001H         SYMBOL        u8Bankbak
  -------         ENDDO         
  C:47E6H         LINE#         73
  C:47FDH         LINE#         76
  C:47FFH         LINE#         78
  C:4802H         LINE#         79
  C:4804H         LINE#         80
  C:4807H         LINE#         82
  C:480AH         LINE#         83
  C:480AH         LINE#         85
  C:4819H         LINE#         86
  C:4821H         LINE#         87
  C:482AH         LINE#         88
  C:482AH         LINE#         89
  C:482CH         LINE#         90
  C:4848H         LINE#         91
  C:484EH         LINE#         92
  C:4853H         LINE#         93
  C:4853H         LINE#         94
  C:4853H         LINE#         95
  C:4853H         LINE#         97
BL51 BANKED LINKER/LOCATER V6.22                                                      01/05/2016  13:28:04  PAGE 17


  C:4853H         LINE#         98
  C:4855H         LINE#         99
  C:4855H         LINE#         100
  C:4855H         LINE#         101
  C:4855H         LINE#         102
  C:4857H         LINE#         104
  C:4857H         LINE#         105
  C:4867H         LINE#         106
  C:4876H         LINE#         108
  C:487DH         LINE#         109
  C:487DH         LINE#         110
  C:4880H         LINE#         111
  C:4882H         LINE#         114
  C:4885H         LINE#         115
  C:4888H         LINE#         116
  C:488AH         LINE#         118
  C:488AH         LINE#         119
  C:488DH         LINE#         120
  C:488DH         LINE#         121
  C:488DH         LINE#         123
  C:488FH         LINE#         124
  C:4891H         LINE#         125
  -------         ENDPROC       ADC_ISP
  -------         PROC          ADC_INIT
  C:5CD9H         LINE#         135
  C:5CD9H         LINE#         136
  C:5CD9H         LINE#         137
  C:5CDCH         LINE#         138
  C:5CDFH         LINE#         139
  C:5CE2H         LINE#         142
  C:5CE5H         LINE#         143
  C:5CE5H         LINE#         144
  C:5CE8H         LINE#         145
  C:5CEBH         LINE#         146
  -------         ENDPROC       ADC_INIT
  -------         PROC          L?0065
  -------         ENDPROC       L?0065
  -------         PROC          _ADCSELCHANNEL
  D:0007H         SYMBOL        u8CH
  C:5C00H         LINE#         156
  C:5C00H         LINE#         157
  C:5C00H         LINE#         158
  C:5C03H         LINE#         159
  C:5C06H         LINE#         160
  C:5C09H         LINE#         162
  C:5C0FH         LINE#         163
  C:5C15H         LINE#         164
  -------         ENDPROC       _ADCSELCHANNEL
  -------         PROC          _ADCGETDATA
  D:0007H         SYMBOL        u8CH
  C:5D5FH         LINE#         174
  C:5D5FH         LINE#         175
  C:5D5FH         LINE#         176
  C:5D65H         LINE#         177
  -------         ENDPROC       _ADCGETDATA
  -------         PROC          _ADCGETVAL
  D:0007H         SYMBOL        u8CH
BL51 BANKED LINKER/LOCATER V6.22                                                      01/05/2016  13:28:04  PAGE 18


  C:5D3EH         LINE#         187
  C:5D3EH         LINE#         188
  C:5D3EH         LINE#         189
  C:5D49H         LINE#         190
  -------         ENDPROC       _ADCGETVAL
  -------         PROC          _GETDEGREE
  D:002FH         SYMBOL        adData
  D:0005H         SYMBOL        u8CH
  -------         DO            
  D:0007H         SYMBOL        i
  -------         ENDDO         
  C:4C1CH         LINE#         200
  C:4C20H         LINE#         201
  C:4C20H         LINE#         202
  C:4C22H         LINE#         203
  C:4C28H         LINE#         205
  C:4C32H         LINE#         206
  C:4C32H         LINE#         207
  C:4C32H         LINE#         209
  C:4C47H         LINE#         210
  C:4C47H         LINE#         212
  C:4C55H         LINE#         213
  C:4C57H         LINE#         215
  C:4C57H         LINE#         216
  C:4C64H         LINE#         217
  C:4C71H         LINE#         218
  C:4C71H         LINE#         219
  C:4C73H         LINE#         221
  C:4C73H         LINE#         223
  C:4C88H         LINE#         224
  C:4C88H         LINE#         226
  C:4C99H         LINE#         227
  C:4C9BH         LINE#         229
  C:4C9BH         LINE#         230
  C:4CA8H         LINE#         231
  C:4CB5H         LINE#         232
  C:4CB5H         LINE#         234
  C:4CB5H         LINE#         235
  C:4CB5H         LINE#         236
  C:4CB5H         LINE#         238
  C:4CB5H         LINE#         239
  -------         ENDPROC       _GETDEGREE
  -------         PROC          _SORT16
  D:002FH         SYMBOL        pDat
  D:0032H         SYMBOL        u8Size
  -------         DO            
  D:0033H         SYMBOL        i
  D:0034H         SYMBOL        j
  D:0035H         SYMBOL        tag
  D:0036H         SYMBOL        temp
  -------         ENDDO         
  C:4723H         LINE#         271
  C:472BH         LINE#         272
  C:472BH         LINE#         273
  C:472EH         LINE#         276
  C:4747H         LINE#         277
  C:4747H         LINE#         278
BL51 BANKED LINKER/LOCATER V6.22                                                      01/05/2016  13:28:04  PAGE 19


  C:474AH         LINE#         279
  C:475CH         LINE#         280
  C:475CH         LINE#         281
  C:4791H         LINE#         282
  C:4791H         LINE#         283
  C:4795H         LINE#         284
  C:47BEH         LINE#         285
  C:47D8H         LINE#         286
  C:47DBH         LINE#         287
  C:47DBH         LINE#         288
  C:47E0H         LINE#         289
  C:47E5H         LINE#         290
  -------         ENDPROC       _SORT16
  -------         PROC          _DICHOTOMY_SEARCH
  D:0031H         SYMBOL        u8Array
  D:0005H         SYMBOL        n
  D:0035H         SYMBOL        u8Key
  -------         DO            
  D:0037H         SYMBOL        u8Low
  D:0038H         SYMBOL        u8High
  D:0005H         SYMBOL        u8Mid
  -------         ENDDO         
  C:4DDEH         LINE#         300
  C:4DE4H         LINE#         301
  C:4DE4H         LINE#         303
  C:4DE7H         LINE#         304
  C:4DEAH         LINE#         306
  C:4DEAH         LINE#         307
  C:4DF6H         LINE#         308
  C:4E13H         LINE#         309
  C:4E37H         LINE#         310
  C:4E3AH         LINE#         311
  C:4E3AH         LINE#         314
  C:4E40H         LINE#         315
  C:4E5FH         LINE#         316
  C:4E64H         LINE#         318
  C:4E67H         LINE#         319
  C:4E69H         LINE#         320
  C:4E6BH         LINE#         321
  -------         ENDPROC       _DICHOTOMY_SEARCH
  -------         PROC          ADCPROC
  -------         DO            
  D:0006H         SYMBOL        u16AdTemp
  D:002BH         SYMBOL        i
  D:002CH         SYMBOL        j
  D:002DH         SYMBOL        u16Tmp
  -------         ENDDO         
  C:40FAH         LINE#         331
  C:40FAH         LINE#         332
  C:40FAH         LINE#         337
  C:4100H         LINE#         338
  C:4100H         LINE#         339
  C:4103H         LINE#         340
  C:4105H         LINE#         343
  C:410FH         LINE#         344
  C:4116H         LINE#         345
  C:4129H         LINE#         348
BL51 BANKED LINKER/LOCATER V6.22                                                      01/05/2016  13:28:04  PAGE 20


  C:412BH         LINE#         349
  C:4135H         LINE#         350
  C:4135H         LINE#         351
  C:4138H         LINE#         352
  C:413AH         LINE#         353
  C:4143H         LINE#         354
  C:4143H         LINE#         355
  C:4145H         LINE#         357
  C:4147H         LINE#         358
  C:4147H         LINE#         359
  C:414CH         LINE#         360
  C:414EH         LINE#         361
  C:414EH         LINE#         362
  C:4169H         LINE#         363
  C:4170H         LINE#         364
  C:4181H         LINE#         365
  C:418DH         LINE#         366
  C:419DH         LINE#         367
  C:41A6H         LINE#         369
  C:41A9H         LINE#         370
  C:41A9H         LINE#         371
  C:41ACH         LINE#         372
  C:41ACH         LINE#         373
  C:41D2H         LINE#         374
  C:41D9H         LINE#         375
  C:41E0H         LINE#         376
  C:41E0H         LINE#         377
  C:41E0H         LINE#         379
  C:41E0H         LINE#         380
  C:41E3H         LINE#         381
  C:41E6H         LINE#         382
  C:41EDH         LINE#         383
  C:41F0H         LINE#         384
  C:41F0H         LINE#         385
  -------         ENDPROC       ADCPROC
  -------         ENDMOD        AD

  -------         MODULE        BUZZER
  C:0000H         SYMBOL        _ICE_DUMMY_
  D:0080H         PUBLIC        P0
  D:0060H         PUBLIC        m_u8pMusicBak
  D:0090H         PUBLIC        P1
  D:00A0H         PUBLIC        P2
  D:00B0H         PUBLIC        P3
  D:00C0H         PUBLIC        P4
  D:0080H         PUBLIC        P5
  C:5A7CH         PUBLIC        MusicCycleEnd
  B:0080H.2       PUBLIC        P5_2
  C:5A79H         PUBLIC        MusicInputFood
  C:5008H         PUBLIC        SoundProc
  C:5D22H         PUBLIC        _PlaySound
  D:0062H         PUBLIC        m_u8OffTime
  C:5A76H         PUBLIC        MusicCountDown
  C:5A72H         PUBLIC        MusicCookEnd
  C:5A80H         PUBLIC        MusicAchievedTemp
  C:5A65H         PUBLIC        MusicKeyDown
  D:0063H         PUBLIC        m_u8OnTime
BL51 BANKED LINKER/LOCATER V6.22                                                      01/05/2016  13:28:04  PAGE 21


  D:0086H         PUBLIC        INSCON
  C:5A67H         PUBLIC        MusicSysError
  C:5A7FH         PUBLIC        MusicOFF
  D:0064H         PUBLIC        m_u8pMusic
  C:5A63H         PUBLIC        MusicPoweron
  C:5A57H         PUBLIC        MetroTable
  -------         PROC          _PLAYSOUND
  D:0006H         SYMBOL        pMusic
  C:5D22H         LINE#         108
  C:5D22H         LINE#         109
  C:5D22H         LINE#         110
  C:5D2AH         LINE#         111
  C:5D2DH         LINE#         112
  C:5D30H         LINE#         113
  -------         ENDPROC       _PLAYSOUND
  -------         PROC          SOUNDPROC
  -------         DO            
  D:0007H         SYMBOL        u8Tmp
  -------         ENDDO         
  C:5008H         LINE#         123
  C:5008H         LINE#         124
  C:5008H         LINE#         127
  C:500FH         LINE#         128
  C:500FH         LINE#         129
  C:5011H         LINE#         130
  C:5012H         LINE#         132
  C:5012H         LINE#         133
  C:5019H         LINE#         134
  C:5019H         LINE#         140
  C:501FH         LINE#         141
  C:5021H         LINE#         142
  C:5024H         LINE#         144
  C:5026H         LINE#         146
  C:502AH         LINE#         147
  C:502AH         LINE#         149
  C:5032H         LINE#         150
  C:5034H         LINE#         151
  C:5035H         LINE#         154
  C:5035H         LINE#         156
  C:5035H         LINE#         157
  C:5038H         LINE#         158
  C:5038H         LINE#         160
  C:503EH         LINE#         161
  C:5041H         LINE#         162
  C:5045H         LINE#         164
  C:5045H         LINE#         166
  C:5048H         LINE#         167
  C:5059H         LINE#         169
  C:506AH         LINE#         170
  C:506DH         LINE#         171
  C:507DH         LINE#         176
  C:5083H         LINE#         177
  C:5085H         LINE#         178
  C:5088H         LINE#         179
  C:5088H         LINE#         180
  C:5088H         LINE#         181
  C:5088H         LINE#         182
BL51 BANKED LINKER/LOCATER V6.22                                                      01/05/2016  13:28:04  PAGE 22


  C:5088H         LINE#         183
  -------         ENDPROC       SOUNDPROC
  -------         ENDMOD        BUZZER

  -------         MODULE        LED
  C:0000H         SYMBOL        _ICE_DUMMY_
  D:0080H         PUBLIC        P0
  D:0090H         PUBLIC        P1
  D:00A0H         PUBLIC        P2
  D:00B0H         PUBLIC        P3
  D:00C0H         PUBLIC        P4
  D:0080H         PUBLIC        P5
  B:0080H.3       PUBLIC        P5_3
  C:5D66H         PUBLIC        _ClrLedBlank
  D:006CH         SYMBOL        g_u8LedBuf
  C:4CB6H         PUBLIC        LedProc
  C:5D6DH         PUBLIC        _SetLedBlank
  D:006DH         SYMBOL        g_u8LedVal
  D:0086H         PUBLIC        INSCON
  C:002EH         PUBLIC        _LedOn
  X:004EH         PUBLIC        g_u8LedTxDAT1
  X:004FH         PUBLIC        g_u8LedTxDAT2
  D:006EH         SYMBOL        g_u8LedBlank
  -------         PROC          _SETLEDBLANK
  D:0007H         SYMBOL        u8Led
  C:5D6DH         LINE#         60
  C:5D6DH         LINE#         61
  C:5D6DH         LINE#         62
  C:5D70H         LINE#         63
  C:5D72H         LINE#         64
  -------         ENDPROC       _SETLEDBLANK
  -------         PROC          _CLRLEDBLANK
  D:0007H         SYMBOL        u8Led
  C:5D66H         LINE#         74
  C:5D66H         LINE#         75
  C:5D66H         LINE#         76
  C:5D6AH         LINE#         77
  C:5D6CH         LINE#         78
  -------         ENDPROC       _CLRLEDBLANK
  -------         PROC          _LEDON
  D:0007H         SYMBOL        u8Led
  C:002EH         LINE#         88
  C:002EH         LINE#         89
  C:002EH         LINE#         90
  C:0031H         LINE#         91
  -------         ENDPROC       _LEDON
  -------         PROC          LEDPROC
  C:4CB6H         LINE#         101
  C:4CB6H         LINE#         102
  C:4CB6H         LINE#         103
  C:4CBBH         LINE#         104
  C:4CBDH         LINE#         106
  C:4CC0H         LINE#         107
  C:4CC0H         LINE#         108
  C:4CC3H         LINE#         109
  C:4CC7H         LINE#         111
  C:4CC9H         LINE#         112
BL51 BANKED LINKER/LOCATER V6.22                                                      01/05/2016  13:28:04  PAGE 23


  C:4CC9H         LINE#         114
  C:4CCCH         LINE#         115
  C:4CCCH         LINE#         116
  C:4CCFH         LINE#         117
  C:4CD1H         LINE#         119
  C:4CD1H         LINE#         120
  C:4CD8H         LINE#         121
  C:4CD8H         LINE#         123
  C:4CDEH         LINE#         124
  C:4CDEH         LINE#         125
  C:4CE4H         LINE#         126
  C:4CE6H         LINE#         127
  C:4CE9H         LINE#         128
  C:4CEAH         LINE#         130
  C:4CEAH         LINE#         131
  C:4CEFH         LINE#         132
  C:4CEFH         LINE#         133
  C:4CF6H         LINE#         134
  C:4CF6H         LINE#         136
  C:4CFBH         LINE#         137
  C:4CFBH         LINE#         138
  C:4D02H         LINE#         139
  C:4D02H         LINE#         141
  C:4D07H         LINE#         142
  C:4D07H         LINE#         143
  C:4D0EH         LINE#         144
  C:4D0EH         LINE#         146
  C:4D13H         LINE#         147
  C:4D13H         LINE#         148
  C:4D1AH         LINE#         149
  C:4D1AH         LINE#         151
  C:4D1FH         LINE#         152
  C:4D1FH         LINE#         153
  C:4D26H         LINE#         154
  C:4D26H         LINE#         156
  C:4D2BH         LINE#         157
  C:4D2BH         LINE#         158
  C:4D31H         LINE#         159
  C:4D33H         LINE#         160
  C:4D33H         LINE#         161
  C:4D35H         LINE#         163
  C:4D35H         LINE#         164
  C:4D3BH         LINE#         165
  C:4D3DH         LINE#         166
  C:4D40H         LINE#         167
  C:4D40H         LINE#         169
  C:4D4BH         LINE#         170
  C:4D4BH         LINE#         171
  -------         ENDPROC       LEDPROC
  -------         ENDMOD        LED

  -------         MODULE        KEY
  C:0000H         SYMBOL        _ICE_DUMMY_
  D:0080H         PUBLIC        P0
  D:0090H         PUBLIC        P1
  D:00A0H         PUBLIC        P2
  D:00B0H         PUBLIC        P3
BL51 BANKED LINKER/LOCATER V6.22                                                      01/05/2016  13:28:04  PAGE 24


  D:00C0H         PUBLIC        P4
  D:0080H         PUBLIC        P5
  B:002AH.0       PUBLIC        bLidOCDEn
  C:5D4AH         PUBLIC        IsNewKey
  B:0080H.4       PUBLIC        P0_4
  D:003CH         PUBLIC        g_u16KeyUpAct
  D:003EH         PUBLIC        g_u16KeyRpyCnt
  X:0052H         PUBLIC        m_u8LidOCDcnt
  C:5108H         PUBLIC        KeyProc
  C:5D55H         PUBLIC        GetKey
  D:0040H         SYMBOL        m_u16KeyAct
  C:4AD0H         PUBLIC        GetKeyVal
  D:0042H         PUBLIC        m_u16KeyVal
  -------         PROC          GETKEYVAL
  -------         DO            
  D:0006H         SYMBOL        apk
  -------         ENDDO         
  C:4AD0H         LINE#         55
  C:4AD0H         LINE#         56
  C:4AD0H         LINE#         59
  C:4AD3H         LINE#         60
  C:4AD3H         LINE#         62
  C:4AD6H         LINE#         63
  C:4AD6H         LINE#         64
  C:4ADCH         LINE#         65
  C:4AE2H         LINE#         66
  C:4AE2H         LINE#         67
  C:4AE4H         LINE#         68
  C:4AE6H         LINE#         69
  C:4AE6H         LINE#         70
  C:4AE8H         LINE#         77
  C:4AE8H         LINE#         79
  C:4AEBH         LINE#         80
  C:4AEBH         LINE#         81
  C:4AF1H         LINE#         82
  C:4AF7H         LINE#         83
  C:4AF7H         LINE#         84
  C:4AF9H         LINE#         85
  C:4AFBH         LINE#         86
  C:4AFBH         LINE#         87
  C:4AFDH         LINE#         89
  C:4AFDH         LINE#         90
  C:4B02H         LINE#         91
  C:4B02H         LINE#         92
  C:4B02H         LINE#         94
  C:4B07H         LINE#         95
  C:4B0AH         LINE#         96
  C:4B0DH         LINE#         97
  C:4B0DH         LINE#         98
  C:4B18H         LINE#         99
  C:4B1FH         LINE#         100
  C:4B1FH         LINE#         101
  C:4B26H         LINE#         102
  C:4B30H         LINE#         103
  C:4B3BH         LINE#         104
  C:4B42H         LINE#         105
  C:4B49H         LINE#         106
BL51 BANKED LINKER/LOCATER V6.22                                                      01/05/2016  13:28:04  PAGE 25


  C:4B50H         LINE#         107
  C:4B57H         LINE#         108
  C:4B5EH         LINE#         109
  C:4B65H         LINE#         110
  C:4B6CH         LINE#         111
  C:4B73H         LINE#         112
  C:4B73H         LINE#         113
  C:4B73H         LINE#         114
  C:4B77H         LINE#         115
  -------         ENDPROC       GETKEYVAL
  -------         PROC          KEYPROC
  -------         DO            
  D:0039H         SYMBOL        u8KeyPressCnt
  D:003AH         SYMBOL        u16PrevKey
  D:002BH         SYMBOL        u16Key
  -------         ENDDO         
  C:5108H         LINE#         135
  C:5108H         LINE#         136
  C:5108H         LINE#         139
  C:510FH         LINE#         141
  C:511BH         LINE#         142
  C:511BH         LINE#         143
  C:511DH         LINE#         145
  C:5124H         LINE#         146
  C:5124H         LINE#         147
  C:512AH         LINE#         149
  C:5130H         LINE#         150
  C:5130H         LINE#         151
  C:5132H         LINE#         152
  C:5134H         LINE#         154
  C:5134H         LINE#         155
  C:5136H         LINE#         156
  C:5136H         LINE#         158
  C:513EH         LINE#         159
  C:5141H         LINE#         160
  C:5141H         LINE#         161
  C:5144H         LINE#         162
  C:5146H         LINE#         163
  C:514FH         LINE#         164
  C:514FH         LINE#         165
  C:5155H         LINE#         166
  C:5158H         LINE#         167
  C:5158H         LINE#         168
  C:515FH         LINE#         169
  C:515FH         LINE#         170
  C:515FH         LINE#         171
  C:515FH         LINE#         179
  C:515FH         LINE#         180
  C:5162H         LINE#         181
  C:5162H         LINE#         182
  C:5164H         LINE#         183
  C:5166H         LINE#         185
  C:5166H         LINE#         186
  C:5168H         LINE#         187
  C:5168H         LINE#         188
  C:516DH         LINE#         189
  C:5171H         LINE#         190
BL51 BANKED LINKER/LOCATER V6.22                                                      01/05/2016  13:28:04  PAGE 26


  C:5173H         LINE#         191
  C:5179H         LINE#         192
  C:517CH         LINE#         193
  C:517CH         LINE#         194
  -------         ENDPROC       KEYPROC
  -------         PROC          GETKEY
  -------         DO            
  D:0006H         SYMBOL        u16Ret
  -------         ENDDO         
  C:5D55H         LINE#         204
  C:5D55H         LINE#         205
  C:5D55H         LINE#         206
  C:5D59H         LINE#         207
  C:5D5EH         LINE#         208
  C:5D5EH         LINE#         209
  -------         ENDPROC       GETKEY
  -------         PROC          ISNEWKEY
  C:5D4AH         LINE#         219
  C:5D4AH         LINE#         220
  C:5D4AH         LINE#         221
  C:5D4DH         LINE#         222
  C:5D4DH         LINE#         223
  C:5D4FH         LINE#         224
  C:5D52H         LINE#         225
  C:5D52H         LINE#         226
  C:5D54H         LINE#         227
  -------         ENDPROC       ISNEWKEY
  -------         ENDMOD        KEY

  -------         MODULE        SSP
  C:0000H         SYMBOL        _ICE_DUMMY_
  D:00F3H         PUBLIC        IB_CON2
  C:4D4CH         PUBLIC        _WriteFlash
  D:0080H         PUBLIC        P0
  D:00F4H         PUBLIC        IB_CON3
  D:0090H         PUBLIC        P1
  D:00F5H         PUBLIC        IB_CON4
  D:00A0H         PUBLIC        P2
  D:00F6H         PUBLIC        IB_CON5
  D:00B0H         PUBLIC        P3
  D:00C0H         PUBLIC        P4
  D:0080H         PUBLIC        P5
  B:00A8H.7       PUBLIC        EA
  D:00FCH         PUBLIC        IB_DATA
  D:00FBH         PUBLIC        IB_OFFSET
  D:00A7H         PUBLIC        FLASHCON
  I:00E3H         PUBLIC        SSP_Flag
  C:58E2H         PUBLIC        _EraseFlash
  C:5A83H         PUBLIC        _ReadFlash
  X:0000H         PUBLIC        Flash
  D:00F7H         PUBLIC        XPAGE
  D:00F2H         PUBLIC        IB_CON1
  -------         PROC          _ERASEFLASH
  D:0006H         SYMBOL        flashaddr
  -------         DO            
  B:002AH.2       SYMBOL        EA_BAK
  -------         ENDDO         
BL51 BANKED LINKER/LOCATER V6.22                                                      01/05/2016  13:28:04  PAGE 27


  C:58E2H         LINE#         55
  C:58E2H         LINE#         56
  C:58E2H         LINE#         57
  C:58E6H         LINE#         60
  C:58E8H         LINE#         62
  C:58EDH         LINE#         63
  C:58F0H         LINE#         65
  C:58F6H         LINE#         66
  C:58F6H         LINE#         67
  C:58F9H         LINE#         68
  C:58FCH         LINE#         69
  C:58FFH         LINE#         70
  C:5902H         LINE#         71
  C:5905H         LINE#         73
  C:5906H         LINE#         74
  C:5907H         LINE#         75
  C:5908H         LINE#         76
  C:5909H         LINE#         77
  C:590BH         LINE#         79
  C:590BH         LINE#         80
  C:590EH         LINE#         81
  C:590EH         LINE#         83
  C:5912H         LINE#         84
  C:5914H         LINE#         85
  C:5916H         LINE#         87
  C:591AH         LINE#         88
  -------         ENDPROC       _ERASEFLASH
  -------         PROC          _WRITEFLASH
  D:002DH         SYMBOL        flashaddr
  D:002FH         SYMBOL        ptr
  -------         DO            
  D:0005H         SYMBOL        i
  B:002AH.2       SYMBOL        EA_BAK
  -------         ENDDO         
  C:4D4CH         LINE#         97
  C:4D56H         LINE#         98
  C:4D56H         LINE#         100
  C:4D5AH         LINE#         102
  C:4D5CH         LINE#         104
  C:4D62H         LINE#         105
  C:4D66H         LINE#         106
  C:4D69H         LINE#         108
  C:4D6CH         LINE#         110
  C:4D73H         LINE#         111
  C:4D73H         LINE#         112
  C:4D76H         LINE#         113
  C:4D79H         LINE#         114
  C:4D7CH         LINE#         115
  C:4D7FH         LINE#         116
  C:4D82H         LINE#         118
  C:4D83H         LINE#         119
  C:4D84H         LINE#         120
  C:4D85H         LINE#         121
  C:4D86H         LINE#         123
  C:4D8EH         LINE#         124
  C:4D90H         LINE#         125
  C:4D90H         LINE#         126
BL51 BANKED LINKER/LOCATER V6.22                                                      01/05/2016  13:28:04  PAGE 28


  C:4D96H         LINE#         127
  C:4D9AH         LINE#         128
  C:4D9DH         LINE#         129
  C:4DADH         LINE#         130
  C:4DB0H         LINE#         131
  C:4DB3H         LINE#         132
  C:4DB6H         LINE#         133
  C:4DB9H         LINE#         134
  C:4DBCH         LINE#         135
  C:4DBDH         LINE#         136
  C:4DBEH         LINE#         137
  C:4DBFH         LINE#         138
  C:4DC0H         LINE#         139
  C:4DC8H         LINE#         140
  C:4DCEH         LINE#         141
  C:4DCEH         LINE#         143
  C:4DCEH         LINE#         144
  C:4DD1H         LINE#         145
  C:4DD1H         LINE#         147
  C:4DD5H         LINE#         148
  C:4DD7H         LINE#         149
  C:4DD9H         LINE#         151
  C:4DDDH         LINE#         152
  -------         ENDPROC       _WRITEFLASH
  -------         PROC          _READFLASH
  D:002CH         SYMBOL        flashaddr
  D:0001H         SYMBOL        ptr
  -------         DO            
  D:0007H         SYMBOL        i
  -------         ENDDO         
  C:5A83H         LINE#         161
  C:5A87H         LINE#         162
  C:5A87H         LINE#         165
  C:5A8AH         LINE#         166
  C:5A8CH         LINE#         167
  C:5A8CH         LINE#         168
  C:5A97H         LINE#         169
  C:5A9EH         LINE#         170
  C:5AA6H         LINE#         171
  C:5AAAH         LINE#         172
  C:5AADH         LINE#         173
  -------         ENDPROC       _READFLASH
  -------         ENDMOD        SSP

  -------         MODULE        LCD
  C:0000H         SYMBOL        _ICE_DUMMY_
  C:324BH         PUBLIC        LCDDispGif
  C:4FC8H         PUBLIC        GifWaterBSK
  D:0080H         PUBLIC        P0
  D:0090H         PUBLIC        P1
  C:5B02H         PUBLIC        _LCDDispAll
  D:00A0H         PUBLIC        P2
  C:57F2H         PUBLIC        _LCDDispPeopleNum
  D:00B0H         PUBLIC        P3
  C:4FB6H         PUBLIC        GifFoodBSK
  D:00C0H         PUBLIC        P4
  D:0080H         PUBLIC        P5
BL51 BANKED LINKER/LOCATER V6.22                                                      01/05/2016  13:28:04  PAGE 29


  D:0021H         PUBLIC        g_u8BlankVal
  C:5686H         PUBLIC        _LCDDispCookTime
  C:43CCH         PUBLIC        _LCDDispWaterML
  C:598CH         PUBLIC        _LCDDispNum_HI
  C:4F86H         PUBLIC        LCD_TAB
  B:0023H.4       PUBLIC        bLCD_PeopleIcon
  C:42E7H         PUBLIC        _LCDDispSelfChk
  B:0023H.3       PUBLIC        bLCD_Texture
  C:558AH         PUBLIC        _LCDDispCookTemp
  C:4B7EH         PUBLIC        _LCDDispFoodCups
  D:00ABH         PUBLIC        DISPCON
  C:5954H         PUBLIC        _LCDDispNum_LO
  B:0022H.6       PUBLIC        bLCD_BNK_TimeNum
  B:0021H.2       PUBLIC        bLCD_BNK_MenuNum
  B:0022H.5       PUBLIC        bLCD_BNK_TempNum
  B:0022H.0       PUBLIC        bLCD_BNK_DIYNum1
  B:0022H.1       PUBLIC        bLCD_BNK_DIYNum2
  B:0022H.2       PUBLIC        bLCD_BNK_DIYNum3
  B:0022H.3       PUBLIC        bLCD_BNK_DIYNum4
  B:0022H.4       PUBLIC        bLCD_BNK_DIYNum5
  B:0021H.1       PUBLIC        bLCD_BNK_ClassicIcon
  X:0029H         PUBLIC        m_u8Framestat
  D:0059H         PUBLIC        u8lcdcnt
  C:5000H         PUBLIC        GifDrainedfoodNBSK
  C:4FAEH         PUBLIC        GifCookerNBSK
  C:5413H         PUBLIC        _PlayGif
  C:5634H         PUBLIC        _LCDDispMenuNum
  B:0022H.7       PUBLIC        bLCD_BNK_COL
  B:0023H.5       PUBLIC        bLCD_PeopleNum
  D:005AH         PUBLIC        m_u16pGif
  B:0023H.7       PUBLIC        bLCD_TimeIcon
  C:517DH         PUBLIC        _LCDDispZone1
  C:55E1H         PUBLIC        _LCDDispZone2
  B:0021H.0       PUBLIC        bLCD_BNK_HealthIcon
  C:48A6H         PUBLIC        _LCDDispZone3
  I:00D9H         PUBLIC        u8GifSpeed
  C:359CH         PUBLIC        _LCDDispZone4
  B:0023H.6       PUBLIC        bLCD_TempIcon
  D:00ACH         PUBLIC        DISPCLK0
  D:005CH         PUBLIC        u8BlankCnt
  D:005DH         PUBLIC        m_u16pGifBak
  D:00ADH         PUBLIC        DISPCON1
  B:0021H.4       PUBLIC        bLCD_BNK_PeopleIcon
  I:00DAH         PUBLIC        dpParam
  B:0021H.3       PUBLIC        bLCD_BNK_Texture
  C:4FD0H         PUBLIC        GifWaterNBSK
  C:4FDAH         PUBLIC        GifPutbasket
  X:002AH         PUBLIC        LCD_Buf
  C:4FBEH         PUBLIC        GifFoodNBSK
  C:4FB2H         PUBLIC        GifCookerNBSKNLID
  B:0024H.6       PUBLIC        bLCD_TimeNum
  C:591BH         PUBLIC        _LCDDispTexture
  X:0500H         PUBLIC        SEG
  B:0023H.2       PUBLIC        bLCD_MenuNum
  C:4FF8H         PUBLIC        GifDrainedfoodBSK
  C:4FAAH         PUBLIC        GifCookerBSK
  B:0024H.5       PUBLIC        bLCD_TempNum
BL51 BANKED LINKER/LOCATER V6.22                                                      01/05/2016  13:28:04  PAGE 30


  B:0024H.0       PUBLIC        bLCD_DIYNum1
  B:0024H.1       PUBLIC        bLCD_DIYNum2
  B:0024H.2       PUBLIC        bLCD_DIYNum3
  C:4F96H         PUBLIC        LCD_TABX
  B:0024H.3       PUBLIC        bLCD_DIYNum4
  C:4FA0H         PUBLIC        LCD_TABY
  B:0024H.4       PUBLIC        bLCD_DIYNum5
  B:0023H.1       PUBLIC        bLCD_ClassicIcon
  C:5AAEH         PUBLIC        LCD_INIT
  C:44A9H         PUBLIC        _LCDDispMovie
  C:2EAAH         PUBLIC        _LCDProc
  D:005FH         PUBLIC        u8GifCnt
  B:0021H.5       PUBLIC        bLCD_BNK_PeopleNum
  D:0023H         PUBLIC        g_u8LCDVal
  B:0021H.7       PUBLIC        bLCD_BNK_TimeIcon
  C:5C34H         PUBLIC        LCDClearNum
  C:5B28H         PUBLIC        LCDDispError
  B:0024H.7       PUBLIC        bLCD_COL
  B:0021H.6       PUBLIC        bLCD_BNK_TempIcon
  C:4FF0H         PUBLIC        GifOutwater
  B:0023H.0       PUBLIC        bLCD_HealthIcon
  C:4FE2H         PUBLIC        GifOutfood
  -------         PROC          LCD_INIT
  -------         DO            
  D:0007H         SYMBOL        i
  -------         ENDDO         
  C:5AAEH         LINE#         145
  C:5AAEH         LINE#         146
  C:5AAEH         LINE#         150
  C:5AB1H         LINE#         151
  C:5AB4H         LINE#         152
  C:5AB7H         LINE#         153
  C:5ABAH         LINE#         156
  C:5ABBH         LINE#         157
  C:5ABBH         LINE#         158
  C:5AC7H         LINE#         159
  C:5AD3H         LINE#         160
  C:5AD7H         LINE#         161
  -------         ENDPROC       LCD_INIT
  -------         PROC          _LCDDISPALL
  D:0007H         SYMBOL        mode
  -------         DO            
  D:0006H         SYMBOL        i
  -------         ENDDO         
  C:5B02H         LINE#         172
  C:5B02H         LINE#         173
  C:5B02H         LINE#         176
  C:5B04H         LINE#         177
  C:5B04H         LINE#         178
  C:5B0CH         LINE#         179
  C:5B0CH         LINE#         180
  C:5B17H         LINE#         181
  C:5B19H         LINE#         183
  C:5B19H         LINE#         184
  C:5B23H         LINE#         185
  C:5B23H         LINE#         186
  C:5B27H         LINE#         187
BL51 BANKED LINKER/LOCATER V6.22                                                      01/05/2016  13:28:04  PAGE 31


  -------         ENDPROC       _LCDDISPALL
  -------         PROC          _LCDDISPMENUNUM
  D:0007H         SYMBOL        menu
  B:002AH.2       SYMBOL        lcdon
  -------         DO            
  D:0007H         SYMBOL        i
  D:0006H         SYMBOL        j
  -------         ENDDO         
  C:5634H         LINE#         197
  C:5634H         LINE#         198
  C:5634H         LINE#         201
  C:5639H         LINE#         202
  C:563BH         LINE#         204
  C:563EH         LINE#         205
  C:563EH         LINE#         206
  C:5644H         LINE#         207
  C:5644H         LINE#         208
  C:564DH         LINE#         209
  C:5651H         LINE#         210
  C:5653H         LINE#         212
  C:5653H         LINE#         213
  C:5659H         LINE#         214
  C:5659H         LINE#         215
  C:565CH         LINE#         216
  C:565CH         LINE#         217
  C:5665H         LINE#         218
  C:5667H         LINE#         219
  C:5668H         LINE#         221
  C:5668H         LINE#         222
  C:566FH         LINE#         223
  C:5671H         LINE#         224
  C:5679H         LINE#         225
  C:567DH         LINE#         226
  C:5685H         LINE#         227
  C:5685H         LINE#         228
  C:5685H         LINE#         229
  C:5685H         LINE#         230
  C:5685H         LINE#         231
  -------         ENDPROC       _LCDDISPMENUNUM
  -------         PROC          _LCDDISPTEXTURE
  D:0005H         SYMBOL        texture
  B:002AH.2       SYMBOL        lcdon
  C:591BH         LINE#         241
  C:591BH         LINE#         242
  C:591BH         LINE#         243
  C:5922H         LINE#         245
  C:5925H         LINE#         246
  C:5925H         LINE#         247
  C:5934H         LINE#         248
  C:5934H         LINE#         249
  C:5934H         LINE#         250
  C:593BH         LINE#         251
  C:593CH         LINE#         252
  C:593CH         LINE#         253
  C:5943H         LINE#         254
  C:5944H         LINE#         255
  C:5944H         LINE#         256
BL51 BANKED LINKER/LOCATER V6.22                                                      01/05/2016  13:28:04  PAGE 32


  C:594BH         LINE#         257
  C:594CH         LINE#         258
  C:594CH         LINE#         259
  C:5953H         LINE#         260
  C:5953H         LINE#         261
  C:5953H         LINE#         262
  C:5953H         LINE#         263
  C:5953H         LINE#         264
  C:5953H         LINE#         265
  -------         ENDPROC       _LCDDISPTEXTURE
  -------         PROC          _LCDDISPPEOPLENUM
  D:0007H         SYMBOL        count
  B:002AH.2       SYMBOL        lcdon
  -------         DO            
  D:0006H         SYMBOL        i
  -------         ENDDO         
  C:57F2H         LINE#         275
  C:57F2H         LINE#         276
  C:57F2H         LINE#         279
  C:57F9H         LINE#         280
  C:5800H         LINE#         282
  C:5803H         LINE#         283
  C:5803H         LINE#         284
  C:5809H         LINE#         285
  C:5809H         LINE#         286
  C:580EH         LINE#         287
  C:580EH         LINE#         288
  C:5810H         LINE#         289
  C:5812H         LINE#         291
  C:5812H         LINE#         292
  C:5819H         LINE#         293
  C:581DH         LINE#         294
  C:581DH         LINE#         296
  C:582EH         LINE#         297
  C:582EH         LINE#         298
  C:582EH         LINE#         299
  -------         ENDPROC       _LCDDISPPEOPLENUM
  C:4B7AH         SYMBOL        L?0316
  -------         PROC          L?0315
  -------         ENDPROC       L?0315
  C:4B7AH         SYMBOL        L?0316
  -------         PROC          _LCDDISPFOODCUPS
  D:0002H         SYMBOL        cups
  B:002AH.2       SYMBOL        lcdon
  -------         DO            
  D:0007H         SYMBOL        i
  -------         ENDDO         
  C:4B7EH         LINE#         309
  C:4B82H         LINE#         310
  C:4B82H         LINE#         313
  C:4B89H         LINE#         314
  C:4B90H         LINE#         315
  C:4B97H         LINE#         316
  C:4B9EH         LINE#         317
  C:4BA5H         LINE#         318
  C:4BACH         LINE#         320
  C:4BAFH         LINE#         321
BL51 BANKED LINKER/LOCATER V6.22                                                      01/05/2016  13:28:04  PAGE 33


  C:4BAFH         LINE#         322
  C:4BB3H         LINE#         323
  C:4BC4H         LINE#         324
  C:4BCFH         LINE#         326
  C:4BD6H         LINE#         327
  C:4BE8H         LINE#         328
  C:4BF3H         LINE#         330
  C:4BF7H         LINE#         331
  C:4C09H         LINE#         332
  C:4C14H         LINE#         334
  C:4C1BH         LINE#         335
  C:4C1BH         LINE#         336
  -------         ENDPROC       _LCDDISPFOODCUPS
  -------         PROC          _LCDDISPWATERML
  D:0002H         SYMBOL        ml
  B:002AH.2       SYMBOL        lcdon
  -------         DO            
  D:0007H         SYMBOL        i
  -------         ENDDO         
  C:43CCH         LINE#         347
  C:43D0H         LINE#         348
  C:43D0H         LINE#         351
  C:43D7H         LINE#         352
  C:43DEH         LINE#         353
  C:43E5H         LINE#         354
  C:43ECH         LINE#         355
  C:43F3H         LINE#         356
  C:43FAH         LINE#         357
  C:4401H         LINE#         358
  C:4408H         LINE#         360
  C:440EH         LINE#         361
  C:440EH         LINE#         362
  C:4412H         LINE#         363
  C:4423H         LINE#         364
  C:4430H         LINE#         366
  C:4437H         LINE#         367
  C:444BH         LINE#         368
  C:4458H         LINE#         370
  C:445CH         LINE#         371
  C:4470H         LINE#         372
  C:447DH         LINE#         374
  C:4482H         LINE#         375
  C:4487H         LINE#         376
  C:4487H         LINE#         377
  C:449BH         LINE#         378
  C:44A8H         LINE#         379
  C:44A8H         LINE#         380
  C:44A8H         LINE#         381
  -------         ENDPROC       _LCDDISPWATERML
  -------         PROC          _LCDDISPCOOKTEMP
  D:0031H         SYMBOL        temp
  B:002AH.2       SYMBOL        lcdon
  -------         DO            
  D:0004H         SYMBOL        i
  D:0006H         SYMBOL        j
  -------         ENDDO         
  C:558AH         LINE#         392
BL51 BANKED LINKER/LOCATER V6.22                                                      01/05/2016  13:28:04  PAGE 34


  C:558CH         LINE#         393
  C:558CH         LINE#         396
  C:5591H         LINE#         397
  C:5598H         LINE#         399
  C:559BH         LINE#         400
  C:559BH         LINE#         401
  C:55A2H         LINE#         402
  C:55A2H         LINE#         403
  C:55A9H         LINE#         404
  C:55ACH         LINE#         405
  C:55BFH         LINE#         406
  C:55C4H         LINE#         407
  C:55D5H         LINE#         409
  C:55DCH         LINE#         410
  C:55DCH         LINE#         411
  C:55E0H         LINE#         412
  C:55E0H         LINE#         413
  C:55E0H         LINE#         414
  C:55E0H         LINE#         415
  -------         ENDPROC       _LCDDISPCOOKTEMP
  -------         PROC          _LCDDISPCOOKTIME
  D:002EH         SYMBOL        pTime
  B:002AH.2       SYMBOL        lcdon
  -------         DO            
  D:0007H         SYMBOL        i
  -------         ENDDO         
  C:5686H         LINE#         425
  C:568CH         LINE#         426
  C:568CH         LINE#         429
  C:568FH         LINE#         431
  C:5692H         LINE#         432
  C:5692H         LINE#         433
  C:56A7H         LINE#         434
  C:56A7H         LINE#         435
  C:56ACH         LINE#         436
  C:56AEH         LINE#         437
  C:56B0H         LINE#         439
  C:56B0H         LINE#         440
  C:56BEH         LINE#         441
  C:56C1H         LINE#         443
  C:56D2H         LINE#         444
  C:56D5H         LINE#         445
  C:56D5H         LINE#         446
  C:56D5H         LINE#         447
  -------         ENDPROC       _LCDDISPCOOKTIME
  -------         PROC          _LCDDISPNUM_HI
  D:0005H         SYMBOL        hdigit
  -------         DO            
  D:0006H         SYMBOL        i
  -------         ENDDO         
  C:598CH         LINE#         457
  C:598EH         LINE#         458
  C:598EH         LINE#         461
  C:5995H         LINE#         462
  C:599DH         LINE#         464
  C:59A0H         LINE#         465
  C:59ABH         LINE#         467
BL51 BANKED LINKER/LOCATER V6.22                                                      01/05/2016  13:28:04  PAGE 35


  C:59B0H         LINE#         468
  C:59C1H         LINE#         469
  -------         ENDPROC       _LCDDISPNUM_HI
  -------         PROC          _LCDDISPNUM_LO
  D:0005H         SYMBOL        ldigit
  -------         DO            
  D:0006H         SYMBOL        i
  -------         ENDDO         
  C:5954H         LINE#         479
  C:5956H         LINE#         480
  C:5956H         LINE#         483
  C:595DH         LINE#         484
  C:5965H         LINE#         486
  C:5968H         LINE#         487
  C:5973H         LINE#         489
  C:5978H         LINE#         490
  C:598BH         LINE#         491
  -------         ENDPROC       _LCDDISPNUM_LO
  -------         PROC          LCDCLEARNUM
  C:5C34H         LINE#         501
  C:5C34H         LINE#         502
  C:5C34H         LINE#         503
  C:5C3BH         LINE#         504
  C:5C42H         LINE#         505
  C:5C49H         LINE#         506
  C:5C50H         LINE#         507
  -------         ENDPROC       LCDCLEARNUM
  -------         PROC          LCDDISPERROR
  C:5B28H         LINE#         517
  C:5B28H         LINE#         518
  C:5B28H         LINE#         519
  C:5B2DH         LINE#         520
  C:5B30H         LINE#         521
  C:5B32H         LINE#         522
  C:5B34H         LINE#         523
  C:5B36H         LINE#         525
  C:5B39H         LINE#         526
  C:5B39H         LINE#         527
  C:5B3DH         LINE#         529
  C:5B3DH         LINE#         531
  C:5B40H         LINE#         532
  C:5B40H         LINE#         533
  C:5B44H         LINE#         535
  C:5B44H         LINE#         537
  C:5B47H         LINE#         538
  C:5B47H         LINE#         539
  C:5B4CH         LINE#         541
  C:5B4CH         LINE#         542
  -------         ENDPROC       LCDDISPERROR
  -------         PROC          _LCDDISPZONE1
  D:0004H         SYMBOL        menu
  D:0005H         SYMBOL        texture
  D:0003H         SYMBOL        state
  C:517DH         LINE#         552
  C:517FH         LINE#         553
  C:517FH         LINE#         554
  C:5182H         LINE#         555
BL51 BANKED LINKER/LOCATER V6.22                                                      01/05/2016  13:28:04  PAGE 36


  C:5185H         LINE#         556
  C:518CH         LINE#         558
  C:519DH         LINE#         559
  C:519DH         LINE#         560
  C:519DH         LINE#         561
  C:519DH         LINE#         562
  C:519FH         LINE#         563
  C:519FH         LINE#         564
  C:51A1H         LINE#         565
  C:51A3H         LINE#         566
  C:51A3H         LINE#         567
  C:51A3H         LINE#         568
  C:51A3H         LINE#         569
  C:51A5H         LINE#         570
  C:51A5H         LINE#         571
  C:51A7H         LINE#         572
  C:51A9H         LINE#         573
  C:51ABH         LINE#         574
  C:51ADH         LINE#         575
  C:51B1H         LINE#         576
  C:51B2H         LINE#         577
  C:51B2H         LINE#         578
  C:51BCH         LINE#         579
  C:51BEH         LINE#         580
  C:51C0H         LINE#         581
  C:51C4H         LINE#         582
  C:51C6H         LINE#         583
  C:51C8H         LINE#         584
  C:51C8H         LINE#         585
  C:51CAH         LINE#         586
  C:51CAH         LINE#         587
  C:51D2H         LINE#         588
  C:51D2H         LINE#         589
  C:51D9H         LINE#         590
  C:51DAH         LINE#         592
  C:51DAH         LINE#         593
  C:51E4H         LINE#         594
  C:51E6H         LINE#         595
  C:51E8H         LINE#         596
  C:51ECH         LINE#         597
  C:51EEH         LINE#         598
  C:51F1H         LINE#         599
  C:51F1H         LINE#         600
  C:51F1H         LINE#         601
  C:51F1H         LINE#         602
  C:51F1H         LINE#         603
  C:51F1H         LINE#         604
  -------         ENDPROC       _LCDDISPZONE1
  -------         PROC          _LCDDISPZONE2
  D:0004H         SYMBOL        people
  D:0005H         SYMBOL        state
  C:55E1H         LINE#         614
  C:55E3H         LINE#         615
  C:55E3H         LINE#         616
  C:55E6H         LINE#         617
  C:55E9H         LINE#         618
  C:55F0H         LINE#         619
BL51 BANKED LINKER/LOCATER V6.22                                                      01/05/2016  13:28:04  PAGE 37


  C:55F7H         LINE#         621
  C:5602H         LINE#         622
  C:5602H         LINE#         623
  C:5602H         LINE#         624
  C:5602H         LINE#         625
  C:5602H         LINE#         626
  C:5604H         LINE#         627
  C:5604H         LINE#         628
  C:560AH         LINE#         629
  C:560AH         LINE#         630
  C:560CH         LINE#         631
  C:560EH         LINE#         632
  C:5610H         LINE#         633
  C:5612H         LINE#         634
  C:5612H         LINE#         635
  C:5614H         LINE#         637
  C:5614H         LINE#         638
  C:5614H         LINE#         639
  C:5614H         LINE#         640
  C:5614H         LINE#         641
  C:5616H         LINE#         642
  C:5616H         LINE#         643
  C:561CH         LINE#         644
  C:561CH         LINE#         645
  C:561EH         LINE#         646
  C:5620H         LINE#         647
  C:5624H         LINE#         648
  C:5625H         LINE#         650
  C:5625H         LINE#         651
  C:562CH         LINE#         652
  C:5633H         LINE#         653
  C:5633H         LINE#         654
  C:5633H         LINE#         655
  C:5633H         LINE#         656
  C:5633H         LINE#         657
  C:5633H         LINE#         658
  -------         ENDPROC       _LCDDISPZONE2
  -------         PROC          _LCDDISPZONE3
  D:0031H         SYMBOL        cup
  D:0033H         SYMBOL        water
  D:0001H         SYMBOL        foodtype
  D:0036H         SYMBOL        state
  C:48A6H         LINE#         668
  C:48B0H         LINE#         669
  C:48B0H         LINE#         670
  C:48B7H         LINE#         671
  C:48BAH         LINE#         672
  C:48C1H         LINE#         674
  C:48D6H         LINE#         675
  C:48D6H         LINE#         676
  C:48D6H         LINE#         677
  C:48DDH         LINE#         678
  C:48E0H         LINE#         679
  C:48E9H         LINE#         680
  C:48EFH         LINE#         681
  C:48EFH         LINE#         682
  C:48F9H         LINE#         683
BL51 BANKED LINKER/LOCATER V6.22                                                      01/05/2016  13:28:04  PAGE 38


  C:4905H         LINE#         684
  C:4905H         LINE#         685
  C:4906H         LINE#         686
  C:4906H         LINE#         687
  C:490DH         LINE#         688
  C:4914H         LINE#         689
  C:491BH         LINE#         690
  C:4925H         LINE#         691
  C:492AH         LINE#         692
  C:492CH         LINE#         693
  C:492EH         LINE#         694
  C:492EH         LINE#         695
  C:4935H         LINE#         696
  C:493CH         LINE#         697
  C:4943H         LINE#         698
  C:494DH         LINE#         699
  C:4950H         LINE#         700
  C:4952H         LINE#         701
  C:4954H         LINE#         702
  C:4954H         LINE#         704
  C:4959H         LINE#         705
  C:4962H         LINE#         707
  C:4962H         LINE#         708
  C:4962H         LINE#         709
  C:4962H         LINE#         710
  C:4962H         LINE#         711
  -------         ENDPROC       _LCDDISPZONE3
  -------         PROC          _LCDDISPZONE4
  D:0004H         SYMBOL        diynum
  D:0005H         SYMBOL        temp
  D:0001H         SYMBOL        ptime
  D:0036H         SYMBOL        state
  C:359CH         LINE#         721
  C:359EH         LINE#         722
  C:359EH         LINE#         723
  C:35A1H         LINE#         724
  C:35A4H         LINE#         725
  C:35A7H         LINE#         726
  C:35A9H         LINE#         727
  C:35B0H         LINE#         728
  C:35B7H         LINE#         729
  C:35BEH         LINE#         730
  C:35C5H         LINE#         731
  C:35CCH         LINE#         733
  C:35D2H         LINE#         734
  C:35D2H         LINE#         735
  C:35D7H         LINE#         736
  C:35DCH         LINE#         737
  C:35E1H         LINE#         738
  C:35E6H         LINE#         739
  C:35EBH         LINE#         740
  C:35F0H         LINE#         741
  C:35F5H         LINE#         742
  C:35FAH         LINE#         743
  C:35FFH         LINE#         744
  C:35FFH         LINE#         746
  C:3628H         LINE#         747
BL51 BANKED LINKER/LOCATER V6.22                                                      01/05/2016  13:28:04  PAGE 39


  C:3628H         LINE#         748
  C:3628H         LINE#         749
  C:362EH         LINE#         750
  C:362EH         LINE#         751
  C:3630H         LINE#         752
  C:3637H         LINE#         753
  C:363EH         LINE#         754
  C:363EH         LINE#         755
  C:363FH         LINE#         756
  C:363FH         LINE#         757
  C:3645H         LINE#         758
  C:3645H         LINE#         759
  C:3647H         LINE#         760
  C:3649H         LINE#         761
  C:3650H         LINE#         762
  C:3654H         LINE#         763
  C:3654H         LINE#         764
  C:3654H         LINE#         765
  C:3654H         LINE#         766
  C:3654H         LINE#         767
  C:3654H         LINE#         768
  C:3654H         LINE#         769
  C:3654H         LINE#         770
  C:3654H         LINE#         771
  C:3657H         LINE#         772
  C:3657H         LINE#         773
  C:3660H         LINE#         774
  C:3660H         LINE#         775
  C:3662H         LINE#         776
  C:3664H         LINE#         777
  C:366BH         LINE#         778
  C:366FH         LINE#         779
  C:366FH         LINE#         780
  C:3671H         LINE#         781
  C:3673H         LINE#         782
  C:3675H         LINE#         783
  C:367DH         LINE#         784
  C:367FH         LINE#         785
  C:367FH         LINE#         786
  C:367FH         LINE#         787
  C:367FH         LINE#         788
  C:367FH         LINE#         789
  C:3682H         LINE#         790
  C:3682H         LINE#         791
  C:368BH         LINE#         792
  C:368BH         LINE#         793
  C:368FH         LINE#         794
  C:368FH         LINE#         795
  C:3692H         LINE#         796
  C:3694H         LINE#         798
  C:3694H         LINE#         799
  C:3697H         LINE#         800
  C:3697H         LINE#         801
  C:369CH         LINE#         802
  C:36A1H         LINE#         803
  C:36A6H         LINE#         804
  C:36ABH         LINE#         805
BL51 BANKED LINKER/LOCATER V6.22                                                      01/05/2016  13:28:04  PAGE 40


  C:36B0H         LINE#         806
  C:36B5H         LINE#         807
  C:36BAH         LINE#         808
  C:36BFH         LINE#         809
  C:36C6H         LINE#         810
  C:36C6H         LINE#         811
  C:36C7H         LINE#         812
  C:36C7H         LINE#         813
  C:36C9H         LINE#         814
  C:36CBH         LINE#         815
  C:36CDH         LINE#         816
  C:36CFH         LINE#         817
  C:36D6H         LINE#         818
  C:36DAH         LINE#         819
  C:36DCH         LINE#         820
  C:36DEH         LINE#         821
  C:36E0H         LINE#         822
  C:36E0H         LINE#         823
  C:36E0H         LINE#         824
  C:36E0H         LINE#         825
  C:36E0H         LINE#         826
  C:36E2H         LINE#         827
  C:36E2H         LINE#         828
  C:36EBH         LINE#         829
  C:36EBH         LINE#         830
  C:36EDH         LINE#         831
  C:36EFH         LINE#         832
  C:36F6H         LINE#         833
  C:36FAH         LINE#         834
  C:36FAH         LINE#         835
  C:36FCH         LINE#         836
  C:36FEH         LINE#         837
  C:3700H         LINE#         838
  C:3702H         LINE#         839
  C:3704H         LINE#         840
  C:370BH         LINE#         841
  C:3712H         LINE#         842
  C:3712H         LINE#         843
  C:3712H         LINE#         844
  C:3714H         LINE#         845
  C:3714H         LINE#         846
  C:3716H         LINE#         847
  C:371AH         LINE#         848
  C:371DH         LINE#         849
  C:371EH         LINE#         850
  C:371EH         LINE#         852
  C:3720H         LINE#         853
  C:3724H         LINE#         854
  C:3726H         LINE#         855
  C:3728H         LINE#         856
  C:372AH         LINE#         857
  C:3733H         LINE#         858
  C:373CH         LINE#         860
  C:373CH         LINE#         861
  C:373CH         LINE#         862
  C:373CH         LINE#         863
  C:373CH         LINE#         864
BL51 BANKED LINKER/LOCATER V6.22                                                      01/05/2016  13:28:04  PAGE 41


  -------         ENDPROC       _LCDDISPZONE4
  -------         PROC          _PLAYGIF
  D:0031H         SYMBOL        pGif
  D:0004H         SYMBOL        speed
  D:0003H         SYMBOL        stat
  C:5413H         LINE#         874
  C:5417H         LINE#         875
  C:5417H         LINE#         876
  C:541FH         LINE#         878
  C:5424H         LINE#         880
  C:5428H         LINE#         881
  C:5428H         LINE#         882
  C:542FH         LINE#         883
  C:5434H         LINE#         884
  C:543BH         LINE#         885
  C:5442H         LINE#         886
  C:5442H         LINE#         888
  C:544BH         LINE#         889
  C:544BH         LINE#         890
  C:544FH         LINE#         891
  C:5451H         LINE#         893
  C:5451H         LINE#         894
  C:545AH         LINE#         895
  C:545AH         LINE#         896
  C:545EH         LINE#         897
  C:5460H         LINE#         899
  C:5460H         LINE#         900
  C:546FH         LINE#         901
  C:546FH         LINE#         902
  C:546FH         LINE#         903
  C:5475H         LINE#         904
  -------         ENDPROC       _PLAYGIF
  -------         PROC          LCDDISPGIF
  -------         DO            
  D:0004H         SYMBOL        tmp
  -------         ENDDO         
  C:324BH         LINE#         906
  C:324BH         LINE#         907
  C:324BH         LINE#         908
  C:324BH         LINE#         910
  C:3254H         LINE#         911
  C:3254H         LINE#         912
  C:3256H         LINE#         914
  C:3263H         LINE#         915
  C:3263H         LINE#         916
  C:3266H         LINE#         917
  C:327FH         LINE#         918
  C:3282H         LINE#         919
  C:3282H         LINE#         920
  C:3287H         LINE#         922
  C:3287H         LINE#         924
  C:3287H         LINE#         925
  C:328DH         LINE#         926
  C:328DH         LINE#         927
  C:3293H         LINE#         928
  C:3297H         LINE#         929
  C:3298H         LINE#         931
BL51 BANKED LINKER/LOCATER V6.22                                                      01/05/2016  13:28:04  PAGE 42


  C:3298H         LINE#         932
  C:32A9H         LINE#         933
  C:32BAH         LINE#         934
  C:32CBH         LINE#         935
  C:32DCH         LINE#         936
  C:32EDH         LINE#         937
  C:32FEH         LINE#         938
  C:3305H         LINE#         939
  C:3305H         LINE#         940
  C:3309H         LINE#         941
  C:3310H         LINE#         942
  C:3312H         LINE#         944
  C:3312H         LINE#         945
  C:3316H         LINE#         946
  C:331DH         LINE#         947
  C:331DH         LINE#         948
  C:3324H         LINE#         949
  C:3324H         LINE#         950
  C:3328H         LINE#         951
  C:332FH         LINE#         952
  C:3332H         LINE#         953
  C:3334H         LINE#         955
  C:3334H         LINE#         956
  C:3338H         LINE#         957
  C:333FH         LINE#         958
  C:3342H         LINE#         959
  C:3342H         LINE#         960
  C:3346H         LINE#         961
  C:3346H         LINE#         962
  C:334DH         LINE#         963
  C:3350H         LINE#         964
  C:3350H         LINE#         965
  C:3352H         LINE#         967
  C:3352H         LINE#         968
  C:3359H         LINE#         969
  C:3360H         LINE#         970
  C:3360H         LINE#         971
  C:3364H         LINE#         972
  C:3367H         LINE#         973
  C:3369H         LINE#         975
  C:3369H         LINE#         976
  C:336DH         LINE#         977
  C:3370H         LINE#         978
  C:3370H         LINE#         979
  C:3370H         LINE#         980
  C:3377H         LINE#         981
  C:3377H         LINE#         982
  C:337BH         LINE#         983
  C:3382H         LINE#         984
  C:3384H         LINE#         986
  C:3384H         LINE#         987
  C:3388H         LINE#         988
  C:338FH         LINE#         989
  C:338FH         LINE#         990
  C:33A0H         LINE#         991
  C:33B1H         LINE#         992
  C:33C2H         LINE#         993
BL51 BANKED LINKER/LOCATER V6.22                                                      01/05/2016  13:28:04  PAGE 43


  C:33D3H         LINE#         994
  C:33E4H         LINE#         995
  C:33F4H         LINE#         996
  C:33F4H         LINE#         997
  C:33F4H         LINE#         998
  C:33F4H         LINE#         999
  C:33F4H         LINE#         1000
  -------         ENDPROC       LCDDISPGIF
  -------         PROC          _LCDDISPMOVIE
  D:0007H         SYMBOL        stat
  -------         DO            
  D:0058H         SYMBOL        sequence
  -------         ENDDO         
  C:44A9H         LINE#         1010
  C:44A9H         LINE#         1011
  C:44A9H         LINE#         1014
  C:44ACH         LINE#         1015
  C:44ACH         LINE#         1016
  C:44B3H         LINE#         1017
  C:44B9H         LINE#         1019
  C:44B9H         LINE#         1021
  C:44B9H         LINE#         1022
  C:44BCH         LINE#         1023
  C:44BCH         LINE#         1024
  C:44BFH         LINE#         1025
  C:44C1H         LINE#         1027
  C:44C1H         LINE#         1028
  C:44C4H         LINE#         1029
  C:44C4H         LINE#         1030
  C:44C9H         LINE#         1031
  C:44C9H         LINE#         1032
  C:44CBH         LINE#         1033
  C:44D5H         LINE#         1034
  C:44D5H         LINE#         1035
  C:44D7H         LINE#         1037
  C:44D7H         LINE#         1038
  C:44DAH         LINE#         1039
  C:44DAH         LINE#         1040
  C:44DAH         LINE#         1041
  C:44DAH         LINE#         1043
  C:44E1H         LINE#         1044
  C:44E6H         LINE#         1045
  C:44EBH         LINE#         1047
  C:4520H         LINE#         1048
  C:4520H         LINE#         1049
  C:4520H         LINE#         1050
  C:4527H         LINE#         1051
  C:452CH         LINE#         1052
  C:4531H         LINE#         1053
  C:4532H         LINE#         1054
  C:4532H         LINE#         1055
  C:4539H         LINE#         1056
  C:453AH         LINE#         1057
  C:453AH         LINE#         1058
  C:453DH         LINE#         1059
  C:453FH         LINE#         1060
  C:453FH         LINE#         1061
BL51 BANKED LINKER/LOCATER V6.22                                                      01/05/2016  13:28:04  PAGE 44


  C:4542H         LINE#         1062
  C:4544H         LINE#         1063
  C:4544H         LINE#         1064
  C:4547H         LINE#         1065
  C:4549H         LINE#         1066
  C:4549H         LINE#         1067
  C:4550H         LINE#         1068
  C:4551H         LINE#         1069
  C:4551H         LINE#         1070
  C:4558H         LINE#         1071
  C:4559H         LINE#         1072
  C:4559H         LINE#         1073
  C:4560H         LINE#         1074
  C:4561H         LINE#         1075
  C:4561H         LINE#         1076
  C:4568H         LINE#         1077
  C:4569H         LINE#         1078
  C:4569H         LINE#         1079
  C:4570H         LINE#         1080
  C:4571H         LINE#         1081
  C:4571H         LINE#         1082
  C:4578H         LINE#         1083
  C:4579H         LINE#         1084
  C:4579H         LINE#         1085
  C:4580H         LINE#         1086
  C:4580H         LINE#         1087
  C:4580H         LINE#         1088
  C:4580H         LINE#         1089
  C:4580H         LINE#         1090
  -------         ENDPROC       _LCDDISPMOVIE
  -------         PROC          _LCDDISPSELFCHK
  D:002EH         SYMBOL        step
  -------         DO            
  D:002FH         SYMBOL        u8BotDegree
  D:0030H         SYMBOL        u8TopDegree
  D:0004H         SYMBOL        i
  -------         ENDDO         
  C:42E7H         LINE#         1100
  C:42E9H         LINE#         1101
  C:42E9H         LINE#         1102
  C:42F0H         LINE#         1103
  C:42F7H         LINE#         1106
  C:42FCH         LINE#         1107
  C:4346H         LINE#         1108
  C:4346H         LINE#         1109
  C:4346H         LINE#         1110
  C:434BH         LINE#         1111
  C:4350H         LINE#         1112
  C:4352H         LINE#         1113
  C:4354H         LINE#         1114
  C:4354H         LINE#         1115
  C:4359H         LINE#         1116
  C:4359H         LINE#         1117
  C:4359H         LINE#         1118
  C:4359H         LINE#         1119
  C:4359H         LINE#         1120
  C:4359H         LINE#         1121
BL51 BANKED LINKER/LOCATER V6.22                                                      01/05/2016  13:28:04  PAGE 45


  C:4359H         LINE#         1122
  C:4359H         LINE#         1123
  C:4359H         LINE#         1124
  C:4359H         LINE#         1125
  C:4359H         LINE#         1126
  C:4359H         LINE#         1127
  C:4359H         LINE#         1128
  C:435EH         LINE#         1129
  C:4368H         LINE#         1130
  C:4372H         LINE#         1131
  C:437CH         LINE#         1132
  C:4386H         LINE#         1133
  C:4390H         LINE#         1134
  C:4396H         LINE#         1135
  C:4399H         LINE#         1136
  C:439EH         LINE#         1137
  C:43A0H         LINE#         1138
  C:43A2H         LINE#         1139
  C:43A2H         LINE#         1140
  C:43A6H         LINE#         1141
  C:43A8H         LINE#         1142
  C:43A8H         LINE#         1143
  C:43AFH         LINE#         1144
  C:43AFH         LINE#         1145
  C:43AFH         LINE#         1146
  C:43B1H         LINE#         1147
  C:43B3H         LINE#         1148
  C:43B3H         LINE#         1149
  C:43B5H         LINE#         1150
  C:43B7H         LINE#         1151
  C:43B7H         LINE#         1152
  C:43BCH         LINE#         1153
  C:43BCH         LINE#         1154
  C:43BCH         LINE#         1155
  C:43C1H         LINE#         1156
  C:43C6H         LINE#         1157
  C:43CBH         LINE#         1158
  C:43CBH         LINE#         1159
  C:43CBH         LINE#         1160
  -------         ENDPROC       _LCDDISPSELFCHK
  -------         PROC          _LCDPROC
  D:002BH         SYMBOL        sysid
  -------         DO            
  D:002CH         SYMBOL        i
  D:002DH         SYMBOL        j
  -------         ENDDO         
  C:2EAAH         LINE#         1170
  C:2EACH         LINE#         1171
  C:2EACH         LINE#         1174
  C:2EAEH         LINE#         1176
  C:2EB5H         LINE#         1177
  C:2EB5H         LINE#         1178
  C:2EBBH         LINE#         1179
  C:2EBBH         LINE#         1180
  C:2EBEH         LINE#         1181
  C:2EBEH         LINE#         1182
  C:2EC1H         LINE#         1183
BL51 BANKED LINKER/LOCATER V6.22                                                      01/05/2016  13:28:04  PAGE 46


  C:2EC4H         LINE#         1184
  C:2EC6H         LINE#         1186
  C:2EC6H         LINE#         1187
  C:2ECCH         LINE#         1188
  C:2ED2H         LINE#         1189
  C:2ED2H         LINE#         1191
  C:2EE4H         LINE#         1192
  C:2EF6H         LINE#         1193
  C:2F0AH         LINE#         1194
  C:2F1EH         LINE#         1195
  C:2F30H         LINE#         1196
  C:2F44H         LINE#         1197
  C:2F56H         LINE#         1198
  C:2F68H         LINE#         1200
  C:2F7AH         LINE#         1201
  C:2F8CH         LINE#         1202
  C:2F9EH         LINE#         1203
  C:2FB0H         LINE#         1204
  C:2FC2H         LINE#         1205
  C:2FD6H         LINE#         1206
  C:2FEEH         LINE#         1207
  C:3000H         LINE#         1209
  C:300FH         LINE#         1210
  C:301EH         LINE#         1211
  C:302DH         LINE#         1213
  C:3030H         LINE#         1215
  C:3038H         LINE#         1218
  C:3048H         LINE#         1219
  C:3048H         LINE#         1220
  C:3048H         LINE#         1221
  C:304AH         LINE#         1222
  C:304CH         LINE#         1223
  C:304CH         LINE#         1224
  C:3051H         LINE#         1225
  C:3053H         LINE#         1226
  C:3053H         LINE#         1227
  C:3056H         LINE#         1228
  C:3058H         LINE#         1229
  C:3058H         LINE#         1230
  C:305FH         LINE#         1231
  C:305FH         LINE#         1232
  C:305FH         LINE#         1233
  C:305FH         LINE#         1234
  C:305FH         LINE#         1236
  C:3061H         LINE#         1237
  C:3068H         LINE#         1238
  C:3068H         LINE#         1239
  C:306BH         LINE#         1240
  C:306DH         LINE#         1241
  C:306DH         LINE#         1242
  C:3087H         LINE#         1243
  C:308EH         LINE#         1244
  C:308EH         LINE#         1245
  -------         ENDPROC       _LCDPROC
  -------         ENDMOD        LCD

  -------         MODULE        IIC
BL51 BANKED LINKER/LOCATER V6.22                                                      01/05/2016  13:28:04  PAGE 47


  C:0000H         SYMBOL        _ICE_DUMMY_
  D:0080H         PUBLIC        P0
  D:0090H         PUBLIC        P1
  D:00A0H         PUBLIC        P2
  D:00B0H         PUBLIC        P3
  D:00C0H         PUBLIC        P4
  D:0080H         PUBLIC        P5
  C:5CB7H         PUBLIC        _delays
  C:0003H         PUBLIC        i2c_ack
  C:5B95H         PUBLIC        i2c_start
  B:00C0H.3       PUBLIC        P4_3
  B:00C0H.4       PUBLIC        P4_4
  D:00E5H         PUBLIC        P4CR
  C:5BB6H         PUBLIC        i2c_stop
  B:002AH.1       PUBLIC        ack
  C:56D6H         PUBLIC        _i2c_sendbyte
  C:582FH         PUBLIC        i2c_recbyte
  X:0050H         PUBLIC        rdat1
  X:0051H         PUBLIC        rdat2
  D:00EDH         PUBLIC        P4PCR
  C:53ADH         PUBLIC        i2c_read
  -------         PROC          I2C_READ
  C:53ADH         LINE#         48
  C:53ADH         LINE#         49
  C:53ADH         LINE#         50
  C:53B3H         LINE#         51
  C:53B6H         LINE#         52
  C:53B9H         LINE#         53
  C:53BEH         LINE#         54
  C:53C1H         LINE#         55
  C:53C6H         LINE#         57
  C:53C6H         LINE#         58
  C:53CEH         LINE#         59
  C:53D0H         LINE#         60
  C:53D3H         LINE#         61
  C:53D8H         LINE#         62
  C:53E0H         LINE#         63
  C:53E2H         LINE#         64
  C:53E5H         LINE#         65
  C:53EAH         LINE#         66
  C:53EAH         LINE#         69
  C:53EFH         LINE#         70
  C:53F2H         LINE#         71
  C:53F5H         LINE#         72
  C:53FAH         LINE#         73
  C:53FDH         LINE#         74
  C:5400H         LINE#         76
  C:5400H         LINE#         87
  C:5408H         LINE#         88
  C:540AH         LINE#         89
  C:540DH         LINE#         90
  C:5412H         LINE#         91
  C:5412H         LINE#         92
  -------         ENDPROC       I2C_READ
  -------         PROC          I2C_START
  C:5B95H         LINE#         94
  C:5B95H         LINE#         95
BL51 BANKED LINKER/LOCATER V6.22                                                      01/05/2016  13:28:04  PAGE 48


  C:5B95H         LINE#         96
  C:5B9AH         LINE#         97
  C:5B9FH         LINE#         98
  C:5B9FH         LINE#         99
  C:5BA2H         LINE#         100
  C:5BA7H         LINE#         101
  C:5BACH         LINE#         102
  C:5BB1H         LINE#         103
  -------         ENDPROC       I2C_START
  -------         PROC          I2C_STOP
  C:5BB6H         LINE#         106
  C:5BB6H         LINE#         107
  C:5BB6H         LINE#         108
  C:5BBBH         LINE#         109
  C:5BC0H         LINE#         110
  C:5BC0H         LINE#         111
  C:5BC3H         LINE#         112
  C:5BC8H         LINE#         113
  C:5BCDH         LINE#         114
  C:5BD2H         LINE#         115
  -------         ENDPROC       I2C_STOP
  -------         PROC          I2C_ACK
  C:0003H         LINE#         118
  C:0003H         LINE#         119
  C:0003H         LINE#         120
  C:0008H         LINE#         121
  C:000BH         LINE#         122
  C:0010H         LINE#         123
  C:0013H         LINE#         124
  C:0018H         LINE#         125
  C:001DH         LINE#         126
  C:001DH         LINE#         127
  C:0020H         LINE#         128
  C:0025H         LINE#         129
  -------         ENDPROC       I2C_ACK
  -------         PROC          _I2C_SENDBYTE
  D:0007H         SYMBOL        tms
  -------         DO            
  D:002DH         SYMBOL        i
  D:002EH         SYMBOL        sdat
  -------         ENDDO         
  C:56D6H         LINE#         132
  C:56D6H         LINE#         133
  C:56D6H         LINE#         135
  C:56D8H         LINE#         136
  C:56DBH         LINE#         137
  C:56DBH         LINE#         138
  C:56E0H         LINE#         139
  C:56E0H         LINE#         140
  C:56E5H         LINE#         141
  C:56E7H         LINE#         143
  C:56E7H         LINE#         144
  C:56ECH         LINE#         145
  C:56ECH         LINE#         146
  C:56F1H         LINE#         147
  C:56F1H         LINE#         148
  C:56F4H         LINE#         149
BL51 BANKED LINKER/LOCATER V6.22                                                      01/05/2016  13:28:04  PAGE 49


  C:56F9H         LINE#         150
  C:56FFH         LINE#         151
  C:5708H         LINE#         152
  C:570BH         LINE#         153
  C:5710H         LINE#         154
  C:5710H         LINE#         155
  C:5713H         LINE#         156
  C:5716H         LINE#         157
  C:571AH         LINE#         159
  C:571CH         LINE#         160
  C:5721H         LINE#         161
  -------         ENDPROC       _I2C_SENDBYTE
  -------         PROC          I2C_RECBYTE
  -------         DO            
  D:002DH         SYMBOL        i
  D:002EH         SYMBOL        dat
  -------         ENDDO         
  C:582FH         LINE#         164
  C:582FH         LINE#         165
  C:582FH         LINE#         167
  C:5832H         LINE#         168
  C:5835H         LINE#         169
  C:5837H         LINE#         170
  C:5837H         LINE#         171
  C:583CH         LINE#         172
  C:5841H         LINE#         173
  C:5841H         LINE#         174
  C:5844H         LINE#         175
  C:584AH         LINE#         176
  C:584DH         LINE#         177
  C:5850H         LINE#         178
  C:5855H         LINE#         179
  C:585EH         LINE#         180
  C:5863H         LINE#         181
  C:5868H         LINE#         182
  C:586AH         LINE#         183
  -------         ENDPROC       I2C_RECBYTE
  C:5CB0H         SYMBOL        L?0029
  -------         PROC          L?0028
  -------         ENDPROC       L?0028
  C:5CB0H         SYMBOL        L?0029
  -------         PROC          _DELAYS
  D:0007H         SYMBOL        tms
  -------         DO            
  D:002FH         SYMBOL        i
  -------         ENDDO         
  C:5CB7H         LINE#         185
  C:5CB7H         LINE#         186
  C:5CB7H         LINE#         188
  C:5CC4H         LINE#         189
  -------         ENDPROC       _DELAYS
  -------         ENDMOD        IIC

  -------         MODULE        MAIN
  C:0000H         SYMBOL        _ICE_DUMMY_
  B:0025H.4       PUBLIC        bFirstPress
  D:0080H         PUBLIC        P0
BL51 BANKED LINKER/LOCATER V6.22                                                      01/05/2016  13:28:04  PAGE 50


  D:0090H         PUBLIC        P1
  B:0027H.6       PUBLIC        bTempDisp_EN
  D:00A0H         PUBLIC        P2
  B:0025H.3       PUBLIC        bADOK
  D:00B0H         PUBLIC        P3
  D:00C0H         PUBLIC        P4
  D:0080H         PUBLIC        P5
  B:0028H.5       PUBLIC        bKeyMusic_EN
  B:0027H.1       PUBLIC        bPwroffline
  B:0026H.6       PUBLIC        bCalBookTime_EN
  B:0028H.0       PUBLIC        bStageChgReq
  B:0027H.3       PUBLIC        bTimeCountDown
  B:0026H.3       PUBLIC        bSysPwrOn
  B:0029H.6       PUBLIC        bHaltHeatErr
  B:0025H.2       PUBLIC        bKeyPress
  D:0071H         PUBLIC        g_u8SecTick
  B:0026H.4       PUBLIC        bTempAch1st
  B:0025H.6       PUBLIC        bLEDBlank
  C:5726H         PUBLIC        main
  D:0029H         PUBLIC        g_u8ErrorType
  B:0026H.0       PUBLIC        bHeatArdReq
  B:0025H.0       PUBLIC        bSysTick
  B:0029H.1       PUBLIC        bBotSensorErr
  B:0029H.2       PUBLIC        bIGBTSensorErr
  D:00B1H         PUBLIC        RSTSTAT
  B:0025H.5       PUBLIC        bNewKey
  D:0025H         PUBLIC        g_u8SysStatus
  B:0028H.1       PUBLIC        bDebug_EN
  B:0029H.0       PUBLIC        bTopSensorErr
  B:0026H.1       PUBLIC        bHeatTopReq
  B:0027H.2       PUBLIC        bHeatPwrReq
  B:0027H.0       PUBLIC        bTimeAdjSt
  B:0028H.4       PUBLIC        bBoilReach
  B:0026H.7       PUBLIC        bLEDComeback
  B:0028H.7       PUBLIC        bHeatStage
  B:0025H.7       PUBLIC        bTempReach
  B:0029H.5       PUBLIC        bVoltageErr
  B:0029H.4       PUBLIC        bPanOverTempErr
  B:0025H.1       PUBLIC        bSys_1000MS
  B:0028H.6       PUBLIC        bSoakStage
  B:0026H.5       PUBLIC        bHeatState
  B:0029H.3       PUBLIC        bNoPanErr
  B:0029H.7       PUBLIC        bIGBTOverTempErr
  B:0027H.7       PUBLIC        bWarm_Start
  B:0026H.2       PUBLIC        bCookBySctEN
  B:0028H.2       PUBLIC        bWarm_EN
  B:0027H.5       PUBLIC        bBookTime_EN
  B:0028H.3       PUBLIC        bBoilChk_EN
  B:0027H.4       PUBLIC        bTimeDisp_EN
  -------         PROC          MAIN
  C:5726H         LINE#         90
  C:5726H         LINE#         91
  C:5726H         LINE#         92
  C:5729H         LINE#         93
  C:572CH         LINE#         95
  C:572CH         LINE#         96
  C:572CH         LINE#         97
BL51 BANKED LINKER/LOCATER V6.22                                                      01/05/2016  13:28:04  PAGE 51


  C:572FH         LINE#         99
  C:5732H         LINE#         100
  C:5734H         LINE#         102
  C:5736H         LINE#         104
  C:573DH         LINE#         105
  C:573DH         LINE#         106
  C:5740H         LINE#         107
  C:5742H         LINE#         108
  C:5742H         LINE#         110
  C:5745H         LINE#         111
  C:574AH         LINE#         112
  C:574DH         LINE#         113
  C:5750H         LINE#         115
  C:5753H         LINE#         116
  C:5756H         LINE#         117
  C:5759H         LINE#         120
  C:575CH         LINE#         123
  C:575FH         LINE#         129
  C:5762H         LINE#         130
  C:5765H         LINE#         132
  C:5767H         LINE#         133
  C:5769H         LINE#         134
  -------         ENDPROC       MAIN
  -------         ENDMOD        MAIN

  -------         MODULE        SYSTEM
  C:0000H         SYMBOL        _ICE_DUMMY_
  D:0080H         PUBLIC        P0
  D:0090H         PUBLIC        P1
  D:00A0H         PUBLIC        P2
  D:00B0H         PUBLIC        P3
  C:3D19H         PUBLIC        DefCookTemp_Table
  D:00C0H         PUBLIC        P4
  C:3B86H         SYMBOL        SelfCheckProc
  D:0080H         PUBLIC        P5
  C:4581H         PUBLIC        EnterReset
  D:0008H         PUBLIC        m_u8Age
  C:3CC4H         PUBLIC        MinCookTime_Table
  D:0009H         PUBLIC        m_u8CookMode
  C:3CF8H         PUBLIC        MaxCookTime_Table
  I:00A3H         PUBLIC        tmDefCookTime
  I:00A6H         PUBLIC        tmCalCookTime
  B:0080H.5       PUBLIC        P0_5
  C:5476H         PUBLIC        EnterSetup
  C:58A7H         PUBLIC        AutotestActivate
  B:0080H.6       PUBLIC        P0_6
  C:3D12H         PUBLIC        MinCookTemp_Table
  X:0046H         PUBLIC        m_u8DIYCookmode
  C:3D20H         PUBLIC        MaxCookTemp_Table
  C:51F2H         PUBLIC        EnterWarm
  C:5BD7H         SYMBOL        ResetProc
  X:0047H         PUBLIC        m_u8LastAge
  C:2525H         SYMBOL        _LoadVarParam
  C:3D6FH         PUBLIC        WaterCups
  C:5AD8H         SYMBOL        ErrorProc
  C:3D27H         PUBLIC        FoodCups
  I:00A9H         PUBLIC        m_u8DispDelayCnt
BL51 BANKED LINKER/LOCATER V6.22                                                      01/05/2016  13:28:04  PAGE 52


  I:00AAH         PUBLIC        tmMinBookTime
  X:0048H         PUBLIC        m_u8ResetCnt
  I:00ADH         PUBLIC        tmMinCookTime
  I:00B0H         PUBLIC        tmMaxCookTime
  C:005EH         SYMBOL        SetupProc
  C:5C83H         PUBLIC        EnterPowerDown
  I:00B3H         PUBLIC        tmIntCookTime
  C:373DH         SYMBOL        WarmProc
  D:000AH         PUBLIC        m_u16Water
  C:586BH         PUBLIC        UIProc
  D:000CH         PUBLIC        DefCookTemp
  C:38DAH         PUBLIC        EnterRun
  D:000DH         PUBLIC        m_u8ChkCnt
  I:00B6H         PUBLIC        m_u8SelfChkStep
  C:4659H         SYMBOL        _SetDIYModeByDIY
  C:59F6H         SYMBOL        PowerDownProc
  D:000EH         PUBLIC        m_u8TimeDispCnt
  D:000FH         PUBLIC        m_u8Watertype
  I:00B7H         PUBLIC        m_u8SetStep
  D:0010H         PUBLIC        m_u16Cups
  D:0012H         PUBLIC        m_u8SysID
  D:0013H         PUBLIC        m_u8Foodtype
  C:5530H         PUBLIC        EnterDefault
  X:0049H         PUBLIC        m_u8DIYPeople
  D:0014H         PUBLIC        MinCookTemp
  C:1480H         SYMBOL        RunProc
  D:0015H         PUBLIC        MaxCookTemp
  C:1E40H         SYMBOL        _FuncSetDisp
  I:00B8H         PUBLIC        m_u8RunStep
  C:3A4DH         SYMBOL        _SetCupsWater
  D:0016H         PUBLIC        u8CookTemp
  D:0017H         PUBLIC        m_u8PreTmp
  C:1A03H         SYMBOL        _FuncRunDisp
  I:00B9H         PUBLIC        tmDebugTime
  C:3DF3H         SYMBOL        _SetDefCookTime
  X:004AH         PUBLIC        m_u8DIYFeel
  I:00BCH         PUBLIC        u8ErrorCnt
  D:0018H         PUBLIC        m_u8People
  C:54D5H         SYMBOL        _SetDefCookTemp
  D:0019H         PUBLIC        m_u8DIYMode
  D:001AH         PUBLIC        m_u8PrevSysID
  X:004BH         PUBLIC        m_u8DIYAge
  I:00BDH         PUBLIC        u16PoweronCnt
  I:00BFH         PUBLIC        m_u8CurTimeDispCnt
  I:00C0H         PUBLIC        m_u8AutoRunCnt
  C:4002H         SYMBOL        JudgeTimeValid
  C:41F1H         PUBLIC        FaultCheckProc
  D:001BH         PUBLIC        m_u8Feel
  C:3CDEH         PUBLIC        DefCookTime_Table
  -------         PROC          UIPROC
  C:586BH         LINE#         153
  C:586BH         LINE#         154
  C:586BH         LINE#         155
  C:5891H         LINE#         156
  C:5891H         LINE#         157
  C:5891H         LINE#         158
  C:5894H         LINE#         159
BL51 BANKED LINKER/LOCATER V6.22                                                      01/05/2016  13:28:04  PAGE 53


  C:5894H         LINE#         161
  C:5894H         LINE#         162
  C:5897H         LINE#         163
  C:5897H         LINE#         165
  C:5897H         LINE#         166
  C:589AH         LINE#         167
  C:589AH         LINE#         169
  C:589AH         LINE#         170
  C:589DH         LINE#         171
  C:589DH         LINE#         173
  C:589DH         LINE#         174
  C:58A0H         LINE#         175
  C:58A0H         LINE#         177
  C:58A0H         LINE#         178
  C:58A3H         LINE#         179
  C:58A3H         LINE#         181
  C:58A3H         LINE#         182
  C:58A6H         LINE#         183
  C:58A6H         LINE#         185
  C:58A6H         LINE#         186
  C:58A6H         LINE#         187
  C:58A6H         LINE#         188
  -------         ENDPROC       UIPROC
  -------         PROC          RESETPROC
  C:5BD7H         LINE#         199
  C:5BD7H         LINE#         200
  C:5BD7H         LINE#         201
  C:5BDAH         LINE#         202
  C:5BDAH         LINE#         203
  C:5BE0H         LINE#         204
  C:5BE6H         LINE#         205
  C:5BE6H         LINE#         206
  C:5BEDH         LINE#         207
  C:5BEDH         LINE#         208
  C:5BEFH         LINE#         209
  C:5BF1H         LINE#         211
  C:5BF1H         LINE#         212
  C:5BF3H         LINE#         213
  C:5BF3H         LINE#         214
  C:5BF6H         LINE#         215
  C:5BF6H         LINE#         216
  C:5BF6H         LINE#         217
  -------         ENDPROC       RESETPROC
  -------         PROC          SETUPPROC
  -------         DO            
  D:002BH         SYMBOL        u16Key
  -------         ENDDO         
  C:005EH         LINE#         227
  C:005EH         LINE#         228
  C:005EH         LINE#         230
  C:0065H         LINE#         232
  C:0070H         LINE#         233
  C:0070H         LINE#         234
  C:0075H         LINE#         235
  C:0075H         LINE#         236
  C:0079H         LINE#         237
  C:007CH         LINE#         238
BL51 BANKED LINKER/LOCATER V6.22                                                      01/05/2016  13:28:04  PAGE 54


  C:007CH         LINE#         239
  C:0081H         LINE#         240
  C:0085H         LINE#         241
  C:0085H         LINE#         243
  C:008DH         LINE#         244
  C:008DH         LINE#         246
  C:0096H         LINE#         247
  C:0096H         LINE#         248
  C:00D7H         LINE#         249
  C:00D7H         LINE#         250
  C:00D7H         LINE#         251
  C:00DEH         LINE#         252
  C:00DEH         LINE#         253
  C:00E2H         LINE#         254
  C:00E4H         LINE#         255
  C:00E7H         LINE#         262
  C:00E7H         LINE#         263
  C:00EAH         LINE#         264
  C:00EDH         LINE#         266
  C:00EDH         LINE#         268
  C:00F1H         LINE#         269
  C:00F3H         LINE#         270
  C:00F6H         LINE#         272
  C:00F6H         LINE#         274
  C:0107H         LINE#         275
  C:0107H         LINE#         276
  C:010BH         LINE#         277
  C:010DH         LINE#         279
  C:010DH         LINE#         280
  C:0111H         LINE#         281
  C:0111H         LINE#         282
  C:0115H         LINE#         283
  C:0118H         LINE#         285
  C:0118H         LINE#         286
  C:0118H         LINE#         287
  C:011CH         LINE#         288
  C:011EH         LINE#         289
  C:0121H         LINE#         291
  C:0121H         LINE#         292
  C:0126H         LINE#         293
  C:0126H         LINE#         294
  C:0129H         LINE#         295
  C:012BH         LINE#         297
  C:012BH         LINE#         298
  C:012EH         LINE#         299
  C:012EH         LINE#         300
  C:0132H         LINE#         301
  C:0134H         LINE#         302
  C:0137H         LINE#         304
  C:0137H         LINE#         305
  C:013EH         LINE#         306
  C:013EH         LINE#         307
  C:0143H         LINE#         308
  C:0143H         LINE#         309
  C:0147H         LINE#         310
  C:0149H         LINE#         312
  C:0149H         LINE#         313
BL51 BANKED LINKER/LOCATER V6.22                                                      01/05/2016  13:28:04  PAGE 55


  C:014CH         LINE#         314
  C:014CH         LINE#         315
  C:014EH         LINE#         316
  C:0150H         LINE#         317
  C:0152H         LINE#         318
  C:0154H         LINE#         319
  C:0158H         LINE#         320
  C:015AH         LINE#         322
  C:015AH         LINE#         323
  C:015FH         LINE#         324
  C:015FH         LINE#         325
  C:0164H         LINE#         326
  C:0168H         LINE#         327
  C:016AH         LINE#         329
  C:016AH         LINE#         330
  C:016EH         LINE#         331
  C:016EH         LINE#         332
  C:016EH         LINE#         333
  C:016EH         LINE#         334
  C:0170H         LINE#         336
  C:0170H         LINE#         337
  C:0174H         LINE#         338
  C:0174H         LINE#         339
  C:0178H         LINE#         340
  C:017BH         LINE#         342
  C:017BH         LINE#         343
  C:017EH         LINE#         344
  C:017EH         LINE#         345
  C:0180H         LINE#         346
  C:0182H         LINE#         347
  C:0185H         LINE#         348
  C:0187H         LINE#         349
  C:018BH         LINE#         350
  C:018DH         LINE#         352
  C:018DH         LINE#         353
  C:0194H         LINE#         354
  C:0194H         LINE#         355
  C:0198H         LINE#         356
  C:019AH         LINE#         358
  C:019AH         LINE#         359
  C:019FH         LINE#         360
  C:01A2H         LINE#         361
  C:01A7H         LINE#         362
  C:01ABH         LINE#         363
  C:01ADH         LINE#         364
  C:01AFH         LINE#         365
  C:01B1H         LINE#         366
  C:01B5H         LINE#         367
  C:01B5H         LINE#         368
  C:01B5H         LINE#         369
  C:01B9H         LINE#         370
  C:01BBH         LINE#         372
  C:01BBH         LINE#         373
  C:01C0H         LINE#         374
  C:01C0H         LINE#         375
  C:01C5H         LINE#         376
  C:01C9H         LINE#         377
BL51 BANKED LINKER/LOCATER V6.22                                                      01/05/2016  13:28:04  PAGE 56


  C:01CBH         LINE#         379
  C:01CBH         LINE#         380
  C:01D0H         LINE#         381
  C:01D5H         LINE#         382
  C:01D8H         LINE#         383
  C:01DDH         LINE#         384
  C:01E1H         LINE#         385
  C:01E4H         LINE#         386
  C:01E8H         LINE#         387
  C:01E8H         LINE#         388
  C:01EAH         LINE#         389
  C:01ECH         LINE#         390
  C:01EEH         LINE#         391
  C:01F2H         LINE#         392
  C:01F4H         LINE#         394
  C:01F4H         LINE#         395
  C:01F9H         LINE#         396
  C:01F9H         LINE#         397
  C:01FCH         LINE#         398
  C:01FEH         LINE#         400
  C:01FEH         LINE#         401
  C:0202H         LINE#         402
  C:0202H         LINE#         403
  C:0206H         LINE#         404
  C:0208H         LINE#         406
  C:0208H         LINE#         411
  C:0208H         LINE#         412
  C:020DH         LINE#         413
  C:020DH         LINE#         414
  C:0211H         LINE#         415
  C:0211H         LINE#         416
  C:0218H         LINE#         417
  C:0218H         LINE#         418
  C:0218H         LINE#         419
  C:0218H         LINE#         420
  C:0218H         LINE#         421
  C:0218H         LINE#         423
  C:0228H         LINE#         424
  C:0228H         LINE#         425
  C:022BH         LINE#         426
  C:0232H         LINE#         427
  C:0232H         LINE#         428
  C:0232H         LINE#         430
  C:0237H         LINE#         431
  C:0237H         LINE#         432
  C:023AH         LINE#         434
  C:024AH         LINE#         435
  C:024AH         LINE#         436
  C:024DH         LINE#         437
  C:0254H         LINE#         439
  C:0254H         LINE#         440
  C:0254H         LINE#         442
  C:0259H         LINE#         443
  C:0259H         LINE#         444
  C:025FH         LINE#         445
  C:025FH         LINE#         446
  C:0262H         LINE#         448
BL51 BANKED LINKER/LOCATER V6.22                                                      01/05/2016  13:28:04  PAGE 57


  C:0262H         LINE#         449
  C:0262H         LINE#         451
  C:0267H         LINE#         452
  C:0267H         LINE#         453
  C:026DH         LINE#         454
  C:026DH         LINE#         455
  C:0271H         LINE#         456
  C:0274H         LINE#         457
  C:0279H         LINE#         458
  C:027EH         LINE#         459
  C:0281H         LINE#         460
  C:0286H         LINE#         461
  C:028AH         LINE#         462
  C:028DH         LINE#         463
  C:0290H         LINE#         464
  C:0292H         LINE#         465
  C:0295H         LINE#         466
  C:0295H         LINE#         467
  C:0295H         LINE#         469
  C:029AH         LINE#         470
  C:029AH         LINE#         471
  C:02A0H         LINE#         472
  C:02A0H         LINE#         473
  C:02A6H         LINE#         474
  C:02A6H         LINE#         475
  C:02ACH         LINE#         476
  C:02B5H         LINE#         477
  C:02B5H         LINE#         478
  C:02B8H         LINE#         479
  C:02B8H         LINE#         480
  C:02B8H         LINE#         481
  C:02BBH         LINE#         482
  C:02BEH         LINE#         483
  C:02BEH         LINE#         484
  C:02BEH         LINE#         485
  C:02BEH         LINE#         487
  C:02C6H         LINE#         488
  C:02C6H         LINE#         489
  C:02CFH         LINE#         490
  C:02CFH         LINE#         491
  C:02D6H         LINE#         492
  C:02D6H         LINE#         493
  C:02D8H         LINE#         494
  C:02DEH         LINE#         495
  C:02E1H         LINE#         496
  C:02E4H         LINE#         497
  C:02E6H         LINE#         498
  C:02E8H         LINE#         499
  C:02EFH         LINE#         500
  C:02EFH         LINE#         501
  C:02F4H         LINE#         502
  C:02F9H         LINE#         503
  C:02FCH         LINE#         504
  C:0301H         LINE#         505
  C:0305H         LINE#         506
  C:0308H         LINE#         507
  C:030AH         LINE#         509
BL51 BANKED LINKER/LOCATER V6.22                                                      01/05/2016  13:28:04  PAGE 58


  C:030AH         LINE#         510
  C:0310H         LINE#         511
  C:0316H         LINE#         512
  C:031CH         LINE#         513
  C:031CH         LINE#         514
  C:031CH         LINE#         515
  C:031EH         LINE#         517
  C:031EH         LINE#         518
  C:0325H         LINE#         519
  C:0325H         LINE#         520
  C:032CH         LINE#         521
  C:032CH         LINE#         522
  C:032FH         LINE#         523
  C:0331H         LINE#         525
  C:0331H         LINE#         526
  C:0334H         LINE#         527
  C:0334H         LINE#         528
  C:0337H         LINE#         529
  C:033AH         LINE#         530
  C:033CH         LINE#         531
  C:033EH         LINE#         532
  C:0340H         LINE#         533
  C:0342H         LINE#         534
  C:0349H         LINE#         535
  C:0349H         LINE#         536
  C:034CH         LINE#         537
  C:034FH         LINE#         538
  C:0351H         LINE#         540
  C:0351H         LINE#         541
  C:0356H         LINE#         542
  C:035BH         LINE#         543
  C:035EH         LINE#         544
  C:0363H         LINE#         545
  C:0367H         LINE#         546
  C:036AH         LINE#         547
  C:036AH         LINE#         548
  C:036DH         LINE#         549
  C:036DH         LINE#         550
  C:036DH         LINE#         551
  C:036DH         LINE#         553
  C:0375H         LINE#         554
  C:0375H         LINE#         555
  C:037AH         LINE#         556
  C:0380H         LINE#         557
  C:0380H         LINE#         558
  C:0381H         LINE#         559
  C:0383H         LINE#         561
  C:0383H         LINE#         562
  C:0386H         LINE#         563
  C:0386H         LINE#         564
  C:038AH         LINE#         565
  C:0390H         LINE#         566
  C:0394H         LINE#         567
  C:03A0H         LINE#         568
  C:03A7H         LINE#         569
  C:03A7H         LINE#         570
  C:03A7H         LINE#         572
BL51 BANKED LINKER/LOCATER V6.22                                                      01/05/2016  13:28:04  PAGE 59


  C:03AFH         LINE#         573
  C:03AFH         LINE#         574
  C:03C3H         LINE#         575
  C:03C3H         LINE#         576
  C:03CAH         LINE#         577
  C:03CAH         LINE#         578
  C:03D6H         LINE#         579
  C:03D8H         LINE#         580
  C:03DBH         LINE#         581
  C:03DEH         LINE#         582
  C:03E0H         LINE#         583
  C:03E2H         LINE#         584
  C:03E4H         LINE#         585
  C:03E6H         LINE#         586
  C:03EDH         LINE#         587
  C:03EDH         LINE#         588
  C:03F0H         LINE#         589
  C:03F3H         LINE#         590
  C:03F5H         LINE#         592
  C:03F5H         LINE#         593
  C:03FAH         LINE#         594
  C:03FFH         LINE#         595
  C:0402H         LINE#         596
  C:0407H         LINE#         597
  C:040BH         LINE#         598
  C:040EH         LINE#         599
  C:040EH         LINE#         600
  C:0411H         LINE#         601
  C:0411H         LINE#         603
  C:0419H         LINE#         604
  C:0419H         LINE#         605
  C:0424H         LINE#         606
  C:0424H         LINE#         607
  C:0430H         LINE#         608
  C:0432H         LINE#         609
  C:0432H         LINE#         610
  C:0437H         LINE#         611
  C:0437H         LINE#         612
  C:0443H         LINE#         613
  C:0445H         LINE#         614
  C:0445H         LINE#         615
  C:0450H         LINE#         616
  C:0450H         LINE#         617
  C:045EH         LINE#         618
  C:045EH         LINE#         619
  C:045EH         LINE#         620
  C:0461H         LINE#         621
  C:0463H         LINE#         622
  C:0463H         LINE#         623
  C:0466H         LINE#         624
  C:0468H         LINE#         625
  C:0468H         LINE#         626
  C:046BH         LINE#         627
  C:046BH         LINE#         628
  C:046BH         LINE#         629
  C:046BH         LINE#         630
  C:046BH         LINE#         631
BL51 BANKED LINKER/LOCATER V6.22                                                      01/05/2016  13:28:04  PAGE 60


  C:046BH         LINE#         632
  C:0470H         LINE#         633
  C:0470H         LINE#         634
  C:0475H         LINE#         635
  C:0475H         LINE#         636
  C:0478H         LINE#         637
  C:047AH         LINE#         639
  C:047AH         LINE#         640
  C:047DH         LINE#         641
  C:047DH         LINE#         642
  C:047DH         LINE#         643
  C:0480H         LINE#         644
  C:0480H         LINE#         646
  C:0487H         LINE#         647
  C:0487H         LINE#         648
  C:0492H         LINE#         649
  C:0492H         LINE#         650
  C:049EH         LINE#         651
  C:04A2H         LINE#         652
  C:04A2H         LINE#         653
  C:04B9H         LINE#         655
  C:04B9H         LINE#         656
  C:04C5H         LINE#         657
  C:04C9H         LINE#         658
  C:04C9H         LINE#         659
  C:04D4H         LINE#         660
  C:04D4H         LINE#         661
  C:04E0H         LINE#         662
  C:04E4H         LINE#         663
  C:04E4H         LINE#         664
  C:04E9H         LINE#         665
  C:04E9H         LINE#         666
  C:04ECH         LINE#         667
  C:04ECH         LINE#         668
  C:04EFH         LINE#         669
  C:04F2H         LINE#         670
  C:04F2H         LINE#         672
  C:04F9H         LINE#         673
  C:04F9H         LINE#         674
  C:04FCH         LINE#         675
  C:04FCH         LINE#         677
  C:0509H         LINE#         678
  C:0509H         LINE#         679
  C:050EH         LINE#         680
  C:0512H         LINE#         681
  C:0514H         LINE#         683
  C:0514H         LINE#         684
  C:0525H         LINE#         685
  C:0525H         LINE#         686
  C:0527H         LINE#         687
  C:0529H         LINE#         689
  C:0529H         LINE#         690
  C:052EH         LINE#         691
  C:052EH         LINE#         692
  C:0530H         LINE#         693
  C:0532H         LINE#         695
  C:0532H         LINE#         696
BL51 BANKED LINKER/LOCATER V6.22                                                      01/05/2016  13:28:04  PAGE 61


  C:0538H         LINE#         697
  C:0538H         LINE#         698
  C:0538H         LINE#         699
  C:0538H         LINE#         700
  C:053BH         LINE#         701
  C:053BH         LINE#         703
  C:053EH         LINE#         704
  C:053EH         LINE#         706
  C:0547H         LINE#         707
  C:0547H         LINE#         708
  C:054CH         LINE#         709
  C:0550H         LINE#         710
  C:0552H         LINE#         712
  C:0552H         LINE#         713
  C:0560H         LINE#         714
  C:0560H         LINE#         715
  C:0563H         LINE#         716
  C:0563H         LINE#         717
  C:0566H         LINE#         718
  C:0566H         LINE#         720
  C:056DH         LINE#         721
  C:056DH         LINE#         722
  C:0570H         LINE#         723
  C:0570H         LINE#         725
  C:0575H         LINE#         726
  C:0575H         LINE#         727
  C:0578H         LINE#         728
  C:057AH         LINE#         730
  C:057AH         LINE#         731
  C:0585H         LINE#         732
  C:0585H         LINE#         733
  C:0587H         LINE#         734
  C:0589H         LINE#         736
  C:0589H         LINE#         737
  C:058FH         LINE#         738
  C:058FH         LINE#         739
  C:058FH         LINE#         740
  C:0592H         LINE#         741
  C:0592H         LINE#         742
  C:0595H         LINE#         743
  C:0595H         LINE#         745
  C:059BH         LINE#         746
  C:059BH         LINE#         747
  C:05A7H         LINE#         748
  C:05A9H         LINE#         749
  C:05AEH         LINE#         750
  C:05B1H         LINE#         751
  C:05B1H         LINE#         753
  C:05B8H         LINE#         754
  C:05B8H         LINE#         755
  C:05C4H         LINE#         756
  C:05C6H         LINE#         757
  C:05C9H         LINE#         758
  C:05CBH         LINE#         759
  C:05CEH         LINE#         760
  C:05CEH         LINE#         761
  C:05CEH         LINE#         762
BL51 BANKED LINKER/LOCATER V6.22                                                      01/05/2016  13:28:04  PAGE 62


  C:05CEH         LINE#         764
  C:05D6H         LINE#         765
  C:05D6H         LINE#         766
  C:05EAH         LINE#         767
  C:05EAH         LINE#         768
  C:05F1H         LINE#         769
  C:05F1H         LINE#         770
  C:05FDH         LINE#         771
  C:05FFH         LINE#         772
  C:0602H         LINE#         773
  C:0605H         LINE#         774
  C:0607H         LINE#         775
  C:0609H         LINE#         776
  C:060BH         LINE#         777
  C:060DH         LINE#         778
  C:0614H         LINE#         779
  C:0614H         LINE#         780
  C:0617H         LINE#         781
  C:061AH         LINE#         782
  C:061CH         LINE#         784
  C:061CH         LINE#         785
  C:0621H         LINE#         786
  C:0626H         LINE#         787
  C:0629H         LINE#         788
  C:062EH         LINE#         789
  C:0632H         LINE#         790
  C:0635H         LINE#         791
  C:0635H         LINE#         792
  C:0638H         LINE#         793
  C:0638H         LINE#         795
  C:0640H         LINE#         796
  C:0640H         LINE#         797
  C:064BH         LINE#         798
  C:064BH         LINE#         799
  C:0657H         LINE#         800
  C:0659H         LINE#         801
  C:0659H         LINE#         802
  C:065EH         LINE#         803
  C:065EH         LINE#         804
  C:066AH         LINE#         805
  C:066CH         LINE#         806
  C:066CH         LINE#         807
  C:0677H         LINE#         808
  C:0677H         LINE#         809
  C:0685H         LINE#         810
  C:0685H         LINE#         811
  C:0685H         LINE#         812
  C:0688H         LINE#         813
  C:068AH         LINE#         814
  C:068AH         LINE#         815
  C:068DH         LINE#         816
  C:068FH         LINE#         817
  C:068FH         LINE#         818
  C:0692H         LINE#         819
  C:0692H         LINE#         820
  C:0692H         LINE#         821
  C:0692H         LINE#         822
BL51 BANKED LINKER/LOCATER V6.22                                                      01/05/2016  13:28:04  PAGE 63


  C:0692H         LINE#         823
  C:0692H         LINE#         824
  C:0697H         LINE#         825
  C:0697H         LINE#         826
  C:069CH         LINE#         827
  C:069CH         LINE#         828
  C:069FH         LINE#         829
  C:06A1H         LINE#         831
  C:06A1H         LINE#         832
  C:06A4H         LINE#         833
  C:06A4H         LINE#         834
  C:06A4H         LINE#         835
  C:06A7H         LINE#         836
  C:06A7H         LINE#         838
  C:06AEH         LINE#         839
  C:06AEH         LINE#         840
  C:06B9H         LINE#         841
  C:06B9H         LINE#         842
  C:06C5H         LINE#         843
  C:06C9H         LINE#         844
  C:06C9H         LINE#         845
  C:06E0H         LINE#         847
  C:06E0H         LINE#         848
  C:06ECH         LINE#         849
  C:06F0H         LINE#         850
  C:06F0H         LINE#         851
  C:06FBH         LINE#         852
  C:06FBH         LINE#         853
  C:0707H         LINE#         854
  C:070BH         LINE#         855
  C:070BH         LINE#         856
  C:0710H         LINE#         857
  C:0710H         LINE#         858
  C:0713H         LINE#         859
  C:0713H         LINE#         860
  C:0716H         LINE#         861
  C:0719H         LINE#         862
  C:0719H         LINE#         864
  C:0723H         LINE#         865
  C:0723H         LINE#         866
  C:0726H         LINE#         867
  C:0726H         LINE#         869
  C:0733H         LINE#         870
  C:0733H         LINE#         871
  C:0738H         LINE#         872
  C:073CH         LINE#         873
  C:073EH         LINE#         875
  C:073EH         LINE#         876
  C:074FH         LINE#         877
  C:074FH         LINE#         878
  C:0753H         LINE#         879
  C:0753H         LINE#         880
  C:0756H         LINE#         881
  C:0758H         LINE#         882
  C:075AH         LINE#         884
  C:075AH         LINE#         885
  C:075CH         LINE#         886
BL51 BANKED LINKER/LOCATER V6.22                                                      01/05/2016  13:28:04  PAGE 64


  C:075CH         LINE#         887
  C:075EH         LINE#         889
  C:075EH         LINE#         890
  C:0763H         LINE#         891
  C:0763H         LINE#         892
  C:0767H         LINE#         893
  C:0767H         LINE#         894
  C:076AH         LINE#         895
  C:076CH         LINE#         896
  C:076EH         LINE#         898
  C:076EH         LINE#         899
  C:0770H         LINE#         900
  C:0770H         LINE#         901
  C:0772H         LINE#         903
  C:0772H         LINE#         904
  C:0776H         LINE#         905
  C:0776H         LINE#         906
  C:0779H         LINE#         907
  C:077BH         LINE#         908
  C:077DH         LINE#         910
  C:077DH         LINE#         911
  C:0783H         LINE#         912
  C:0783H         LINE#         913
  C:0783H         LINE#         914
  C:0783H         LINE#         915
  C:0783H         LINE#         916
  C:0786H         LINE#         917
  C:0786H         LINE#         919
  C:0789H         LINE#         920
  C:0789H         LINE#         922
  C:0796H         LINE#         923
  C:0796H         LINE#         924
  C:0799H         LINE#         925
  C:079BH         LINE#         926
  C:079DH         LINE#         928
  C:079DH         LINE#         929
  C:07A1H         LINE#         930
  C:07A1H         LINE#         931
  C:07A4H         LINE#         932
  C:07A6H         LINE#         933
  C:07A8H         LINE#         935
  C:07A8H         LINE#         936
  C:07AEH         LINE#         937
  C:07AEH         LINE#         938
  C:07AEH         LINE#         939
  C:07B1H         LINE#         940
  C:07B1H         LINE#         941
  C:07B4H         LINE#         942
  C:07B4H         LINE#         944
  C:07BBH         LINE#         945
  C:07BBH         LINE#         946
  C:07BEH         LINE#         947
  C:07BEH         LINE#         949
  C:07C3H         LINE#         950
  C:07C3H         LINE#         951
  C:07C6H         LINE#         952
  C:07C8H         LINE#         954
BL51 BANKED LINKER/LOCATER V6.22                                                      01/05/2016  13:28:04  PAGE 65


  C:07C8H         LINE#         955
  C:07D3H         LINE#         956
  C:07D3H         LINE#         957
  C:07D5H         LINE#         958
  C:07D7H         LINE#         960
  C:07D7H         LINE#         961
  C:07DDH         LINE#         962
  C:07DDH         LINE#         963
  C:07DDH         LINE#         964
  C:07E0H         LINE#         965
  C:07E0H         LINE#         966
  C:07E3H         LINE#         967
  C:07E3H         LINE#         969
  C:07E9H         LINE#         970
  C:07E9H         LINE#         971
  C:07F5H         LINE#         972
  C:07F7H         LINE#         973
  C:07FCH         LINE#         974
  C:07FFH         LINE#         975
  C:07FFH         LINE#         977
  C:0806H         LINE#         978
  C:0806H         LINE#         979
  C:0812H         LINE#         980
  C:0814H         LINE#         981
  C:0817H         LINE#         982
  C:0817H         LINE#         983
  C:0817H         LINE#         984
  C:0817H         LINE#         986
  C:081CH         LINE#         987
  C:081CH         LINE#         988
  C:0822H         LINE#         989
  C:0822H         LINE#         990
  C:082FH         LINE#         991
  C:082FH         LINE#         992
  C:0835H         LINE#         993
  C:0835H         LINE#         994
  C:0837H         LINE#         995
  C:0839H         LINE#         996
  C:083BH         LINE#         997
  C:083DH         LINE#         998
  C:083FH         LINE#         999
  C:083FH         LINE#         1000
  C:084CH         LINE#         1001
  C:084EH         LINE#         1002
  C:0852H         LINE#         1003
  C:0854H         LINE#         1005
  C:0854H         LINE#         1006
  C:085AH         LINE#         1007
  C:085AH         LINE#         1008
  C:085CH         LINE#         1009
  C:0861H         LINE#         1010
  C:0861H         LINE#         1011
  C:0861H         LINE#         1012
  C:0861H         LINE#         1013
  C:0861H         LINE#         1015
  C:0866H         LINE#         1016
  C:0866H         LINE#         1017
BL51 BANKED LINKER/LOCATER V6.22                                                      01/05/2016  13:28:04  PAGE 66


  C:086CH         LINE#         1018
  C:086CH         LINE#         1019
  C:0873H         LINE#         1020
  C:0873H         LINE#         1021
  C:0876H         LINE#         1022
  C:0876H         LINE#         1023
  C:087DH         LINE#         1024
  C:087DH         LINE#         1025
  C:0880H         LINE#         1026
  C:0883H         LINE#         1027
  C:0887H         LINE#         1028
  C:0889H         LINE#         1029
  C:088BH         LINE#         1031
  C:088BH         LINE#         1032
  C:088EH         LINE#         1033
  C:0891H         LINE#         1034
  C:0895H         LINE#         1035
  C:0898H         LINE#         1036
  C:0898H         LINE#         1037
  C:089AH         LINE#         1038
  C:089CH         LINE#         1039
  C:089EH         LINE#         1040
  C:08A0H         LINE#         1041
  C:08A4H         LINE#         1042
  C:08A9H         LINE#         1043
  C:08A9H         LINE#         1044
  C:08A9H         LINE#         1045
  C:08A9H         LINE#         1046
  C:08A9H         LINE#         1048
  C:08B1H         LINE#         1049
  C:08B1H         LINE#         1050
  C:08BAH         LINE#         1051
  C:08BAH         LINE#         1052
  C:08FBH         LINE#         1053
  C:08FBH         LINE#         1054
  C:08FBH         LINE#         1055
  C:0902H         LINE#         1056
  C:0902H         LINE#         1057
  C:0908H         LINE#         1058
  C:0908H         LINE#         1059
  C:090EH         LINE#         1060
  C:090EH         LINE#         1061
  C:0918H         LINE#         1062
  C:0918H         LINE#         1063
  C:091AH         LINE#         1064
  C:091CH         LINE#         1071
  C:091CH         LINE#         1072
  C:0926H         LINE#         1073
  C:0926H         LINE#         1074
  C:0928H         LINE#         1075
  C:092AH         LINE#         1077
  C:092AH         LINE#         1078
  C:092DH         LINE#         1079
  C:092DH         LINE#         1080
  C:092DH         LINE#         1081
  C:0930H         LINE#         1082
  C:0932H         LINE#         1083
BL51 BANKED LINKER/LOCATER V6.22                                                      01/05/2016  13:28:04  PAGE 67


  C:0936H         LINE#         1084
  C:0938H         LINE#         1086
  C:0938H         LINE#         1087
  C:093CH         LINE#         1088
  C:093CH         LINE#         1089
  C:0947H         LINE#         1090
  C:0947H         LINE#         1091
  C:094BH         LINE#         1092
  C:094BH         LINE#         1093
  C:094DH         LINE#         1095
  C:094DH         LINE#         1096
  C:0954H         LINE#         1097
  C:0954H         LINE#         1098
  C:0956H         LINE#         1099
  C:0958H         LINE#         1101
  C:0958H         LINE#         1102
  C:095AH         LINE#         1103
  C:095AH         LINE#         1104
  C:095AH         LINE#         1105
  C:095AH         LINE#         1106
  C:095CH         LINE#         1108
  C:095CH         LINE#         1109
  C:0960H         LINE#         1110
  C:0962H         LINE#         1111
  C:0965H         LINE#         1113
  C:0965H         LINE#         1114
  C:0976H         LINE#         1115
  C:0976H         LINE#         1116
  C:097AH         LINE#         1117
  C:097CH         LINE#         1119
  C:097CH         LINE#         1120
  C:0980H         LINE#         1121
  C:0980H         LINE#         1122
  C:0985H         LINE#         1123
  C:0985H         LINE#         1124
  C:0988H         LINE#         1125
  C:098AH         LINE#         1127
  C:098AH         LINE#         1128
  C:098DH         LINE#         1129
  C:098DH         LINE#         1130
  C:0990H         LINE#         1131
  C:0994H         LINE#         1132
  C:0997H         LINE#         1134
  C:0997H         LINE#         1135
  C:099BH         LINE#         1136
  C:099DH         LINE#         1137
  C:09A0H         LINE#         1139
  C:09A0H         LINE#         1140
  C:09A5H         LINE#         1141
  C:09A5H         LINE#         1142
  C:09AAH         LINE#         1143
  C:09AAH         LINE#         1144
  C:09ADH         LINE#         1145
  C:09B0H         LINE#         1146
  C:09B2H         LINE#         1148
  C:09B2H         LINE#         1149
  C:09B5H         LINE#         1150
BL51 BANKED LINKER/LOCATER V6.22                                                      01/05/2016  13:28:04  PAGE 68


  C:09B5H         LINE#         1151
  C:09B5H         LINE#         1152
  C:09B7H         LINE#         1154
  C:09B7H         LINE#         1155
  C:09BBH         LINE#         1156
  C:09BBH         LINE#         1157
  C:09BFH         LINE#         1158
  C:09C2H         LINE#         1160
  C:09C2H         LINE#         1161
  C:09CDH         LINE#         1162
  C:09CDH         LINE#         1163
  C:09CDH         LINE#         1164
  C:09CDH         LINE#         1165
  C:09CFH         LINE#         1167
  C:09CFH         LINE#         1168
  C:09D3H         LINE#         1169
  C:09D5H         LINE#         1170
  C:09D5H         LINE#         1171
  C:09D7H         LINE#         1173
  C:09D7H         LINE#         1174
  C:09D7H         LINE#         1175
  C:09D7H         LINE#         1176
  C:09D9H         LINE#         1178
  C:09D9H         LINE#         1179
  C:09DCH         LINE#         1180
  C:09DCH         LINE#         1181
  C:09DCH         LINE#         1182
  C:09DCH         LINE#         1183
  C:09DEH         LINE#         1185
  C:09DEH         LINE#         1186
  C:09FBH         LINE#         1188
  C:09FBH         LINE#         1189
  C:09FBH         LINE#         1190
  C:09FBH         LINE#         1191
  C:09FDH         LINE#         1193
  C:09FDH         LINE#         1194
  C:0A01H         LINE#         1195
  C:0A03H         LINE#         1196
  C:0A03H         LINE#         1197
  C:0A03H         LINE#         1198
  C:0A05H         LINE#         1200
  C:0A05H         LINE#         1201
  C:0A09H         LINE#         1202
  C:0A0BH         LINE#         1203
  C:0A0DH         LINE#         1205
  C:0A0DH         LINE#         1206
  C:0A12H         LINE#         1207
  C:0A16H         LINE#         1208
  C:0A18H         LINE#         1209
  C:0A1AH         LINE#         1211
  C:0A1AH         LINE#         1212
  C:0A1AH         LINE#         1213
  C:0A1AH         LINE#         1214
  C:0A1CH         LINE#         1216
  C:0A1CH         LINE#         1217
  C:0A39H         LINE#         1219
  C:0A39H         LINE#         1220
BL51 BANKED LINKER/LOCATER V6.22                                                      01/05/2016  13:28:04  PAGE 69


  C:0A3DH         LINE#         1221
  C:0A40H         LINE#         1222
  C:0A42H         LINE#         1224
  C:0A42H         LINE#         1225
  C:0A46H         LINE#         1226
  C:0A48H         LINE#         1227
  C:0A48H         LINE#         1228
  C:0A4AH         LINE#         1230
  C:0A4AH         LINE#         1231
  C:0A4EH         LINE#         1232
  C:0A53H         LINE#         1233
  C:0A53H         LINE#         1234
  C:0A53H         LINE#         1235
  C:0A53H         LINE#         1236
  C:0A53H         LINE#         1237
  C:0A53H         LINE#         1238
  C:0A53H         LINE#         1241
  C:0A56H         LINE#         1242
  C:0A56H         LINE#         1243
  C:0A58H         LINE#         1244
  C:0A5AH         LINE#         1245
  C:0A5AH         LINE#         1248
  C:0A5DH         LINE#         1249
  C:0A5DH         LINE#         1250
  C:0A60H         LINE#         1251
  C:0A60H         LINE#         1254
  C:0A63H         LINE#         1255
  C:0A63H         LINE#         1256
  C:0A6BH         LINE#         1257
  C:0A6BH         LINE#         1258
  C:0A6CH         LINE#         1259
  C:0A6FH         LINE#         1260
  C:0A6FH         LINE#         1261
  C:0A74H         LINE#         1262
  C:0A74H         LINE#         1263
  C:0A74H         LINE#         1264
  C:0A74H         LINE#         1265
  -------         ENDPROC       SETUPPROC
  -------         PROC          JUDGETIMEVALID
  C:4002H         LINE#         1271
  C:4002H         LINE#         1272
  C:4002H         LINE#         1273
  C:4005H         LINE#         1274
  C:4005H         LINE#         1275
  C:400CH         LINE#         1276
  C:400CH         LINE#         1277
  C:400FH         LINE#         1278
  C:4011H         LINE#         1279
  C:4011H         LINE#         1281
  C:4018H         LINE#         1282
  C:4018H         LINE#         1283
  C:401BH         LINE#         1284
  C:401EH         LINE#         1285
  C:401EH         LINE#         1287
  C:402AH         LINE#         1288
  C:402AH         LINE#         1289
  C:402DH         LINE#         1290
BL51 BANKED LINKER/LOCATER V6.22                                                      01/05/2016  13:28:04  PAGE 70


  C:4030H         LINE#         1291
  C:4030H         LINE#         1293
  C:403AH         LINE#         1294
  C:403AH         LINE#         1295
  C:403CH         LINE#         1296
  C:4040H         LINE#         1297
  C:4040H         LINE#         1299
  C:4047H         LINE#         1300
  C:4047H         LINE#         1301
  C:4050H         LINE#         1302
  C:4050H         LINE#         1303
  C:4052H         LINE#         1304
  C:4054H         LINE#         1305
  C:4054H         LINE#         1306
  C:4054H         LINE#         1307
  C:4054H         LINE#         1309
  C:4057H         LINE#         1310
  C:4057H         LINE#         1311
  C:405CH         LINE#         1312
  C:405CH         LINE#         1313
  C:4065H         LINE#         1314
  C:4065H         LINE#         1315
  C:4067H         LINE#         1316
  C:4067H         LINE#         1317
  C:4069H         LINE#         1319
  C:4069H         LINE#         1320
  C:406BH         LINE#         1321
  C:406EH         LINE#         1322
  C:406EH         LINE#         1323
  C:406EH         LINE#         1325
  C:4075H         LINE#         1326
  C:4075H         LINE#         1327
  C:4078H         LINE#         1328
  C:407AH         LINE#         1329
  C:407AH         LINE#         1331
  C:4084H         LINE#         1332
  C:4084H         LINE#         1333
  C:4086H         LINE#         1334
  C:408AH         LINE#         1335
  C:408AH         LINE#         1337
  C:4091H         LINE#         1338
  C:4091H         LINE#         1339
  C:409AH         LINE#         1340
  C:409AH         LINE#         1341
  C:409CH         LINE#         1342
  C:409EH         LINE#         1343
  C:409EH         LINE#         1344
  C:409EH         LINE#         1346
  C:40A8H         LINE#         1347
  C:40A8H         LINE#         1348
  C:40AAH         LINE#         1349
  C:40AEH         LINE#         1350
  C:40AEH         LINE#         1352
  C:40B5H         LINE#         1353
  C:40B5H         LINE#         1354
  C:40BEH         LINE#         1355
  C:40BEH         LINE#         1356
BL51 BANKED LINKER/LOCATER V6.22                                                      01/05/2016  13:28:04  PAGE 71


  C:40C0H         LINE#         1357
  C:40C2H         LINE#         1358
  C:40C2H         LINE#         1359
  C:40C2H         LINE#         1360
  C:40C2H         LINE#         1362
  C:40C5H         LINE#         1363
  C:40C5H         LINE#         1364
  C:40CAH         LINE#         1365
  C:40CAH         LINE#         1366
  C:40DDH         LINE#         1367
  C:40DDH         LINE#         1368
  C:40E0H         LINE#         1369
  C:40E2H         LINE#         1371
  C:40E2H         LINE#         1372
  C:40E5H         LINE#         1373
  C:40E5H         LINE#         1374
  C:40E5H         LINE#         1376
  C:40ECH         LINE#         1377
  C:40ECH         LINE#         1378
  C:40EFH         LINE#         1379
  C:40EFH         LINE#         1381
  C:40F6H         LINE#         1382
  C:40F6H         LINE#         1383
  C:40F9H         LINE#         1384
  C:40F9H         LINE#         1385
  C:40F9H         LINE#         1386
  -------         ENDPROC       JUDGETIMEVALID
  -------         PROC          _SETDEFCOOKTIME
  D:0007H         SYMBOL        CookMode
  -------         DO            
  D:0030H         SYMBOL        index
  -------         ENDDO         
  C:3DF3H         LINE#         1389
  C:3DF3H         LINE#         1390
  C:3DF3H         LINE#         1391
  C:3DF6H         LINE#         1393
  C:3E33H         LINE#         1394
  C:3E33H         LINE#         1395
  C:3E33H         LINE#         1396
  C:3E36H         LINE#         1397
  C:3E38H         LINE#         1398
  C:3E38H         LINE#         1399
  C:3E3BH         LINE#         1400
  C:3E3DH         LINE#         1401
  C:3E3DH         LINE#         1402
  C:3E40H         LINE#         1403
  C:3E42H         LINE#         1404
  C:3E42H         LINE#         1405
  C:3E45H         LINE#         1406
  C:3E47H         LINE#         1407
  C:3E47H         LINE#         1408
  C:3E4AH         LINE#         1409
  C:3E4CH         LINE#         1410
  C:3E4CH         LINE#         1411
  C:3E4FH         LINE#         1412
  C:3E51H         LINE#         1413
  C:3E51H         LINE#         1414
BL51 BANKED LINKER/LOCATER V6.22                                                      01/05/2016  13:28:04  PAGE 72


  C:3E54H         LINE#         1415
  C:3E56H         LINE#         1416
  C:3E56H         LINE#         1417
  C:3E59H         LINE#         1418
  C:3E5BH         LINE#         1419
  C:3E5BH         LINE#         1420
  C:3E5EH         LINE#         1421
  C:3E60H         LINE#         1422
  C:3E60H         LINE#         1423
  C:3E63H         LINE#         1424
  C:3E65H         LINE#         1425
  C:3E65H         LINE#         1426
  C:3E68H         LINE#         1427
  C:3E6AH         LINE#         1428
  C:3E6AH         LINE#         1429
  C:3E6DH         LINE#         1430
  C:3E6FH         LINE#         1431
  C:3E6FH         LINE#         1432
  C:3E72H         LINE#         1433
  C:3E72H         LINE#         1434
  C:3E72H         LINE#         1435
  C:3E72H         LINE#         1436
  C:3E72H         LINE#         1438
  C:3E89H         LINE#         1439
  C:3EA2H         LINE#         1440
  C:3EB9H         LINE#         1441
  C:3ED2H         LINE#         1442
  C:3EE9H         LINE#         1443
  C:3F02H         LINE#         1444
  -------         ENDPROC       _SETDEFCOOKTIME
  -------         PROC          _SETDEFCOOKTEMP
  D:0007H         SYMBOL        CookMode
  -------         DO            
  D:0006H         SYMBOL        index
  -------         ENDDO         
  C:54D5H         LINE#         1447
  C:54D5H         LINE#         1448
  C:54D5H         LINE#         1451
  C:54F0H         LINE#         1452
  C:54F0H         LINE#         1453
  C:54F0H         LINE#         1454
  C:54F2H         LINE#         1455
  C:54F4H         LINE#         1456
  C:54F4H         LINE#         1457
  C:54F6H         LINE#         1458
  C:54F8H         LINE#         1459
  C:54F8H         LINE#         1460
  C:54FAH         LINE#         1461
  C:54FCH         LINE#         1462
  C:54FCH         LINE#         1463
  C:54FEH         LINE#         1464
  C:5500H         LINE#         1465
  C:5500H         LINE#         1466
  C:5502H         LINE#         1467
  C:5504H         LINE#         1468
  C:5504H         LINE#         1469
  C:5506H         LINE#         1470
BL51 BANKED LINKER/LOCATER V6.22                                                      01/05/2016  13:28:04  PAGE 73


  C:5508H         LINE#         1471
  C:5508H         LINE#         1472
  C:550AH         LINE#         1473
  C:550CH         LINE#         1474
  C:550CH         LINE#         1475
  C:550EH         LINE#         1476
  C:550EH         LINE#         1477
  C:550EH         LINE#         1479
  C:5512H         LINE#         1480
  C:5512H         LINE#         1481
  C:5519H         LINE#         1482
  C:5520H         LINE#         1483
  C:5527H         LINE#         1484
  C:5528H         LINE#         1486
  C:5528H         LINE#         1487
  C:552BH         LINE#         1488
  C:552DH         LINE#         1489
  C:552FH         LINE#         1490
  C:552FH         LINE#         1491
  -------         ENDPROC       _SETDEFCOOKTEMP
  -------         PROC          L?0938
  -------         ENDPROC       L?0938
  -------         PROC          _SETDIYMODEBYDIY
  D:0007H         SYMBOL        diymode
  -------         DO            
  D:002FH         SYMBOL        i
  -------         ENDDO         
  C:4659H         LINE#         1494
  C:4659H         LINE#         1495
  C:4659H         LINE#         1498
  C:466AH         LINE#         1499
  C:466AH         LINE#         1500
  C:4670H         LINE#         1501
  C:4676H         LINE#         1502
  C:467CH         LINE#         1503
  C:4682H         LINE#         1504
  C:4688H         LINE#         1505
  C:468BH         LINE#         1506
  C:468DH         LINE#         1507
  C:468FH         LINE#         1508
  C:4691H         LINE#         1509
  C:4693H         LINE#         1510
  C:4695H         LINE#         1511
  C:4697H         LINE#         1512
  C:4699H         LINE#         1513
  C:469BH         LINE#         1514
  C:469EH         LINE#         1515
  C:46A0H         LINE#         1516
  C:46A2H         LINE#         1517
  C:46A5H         LINE#         1518
  C:46A7H         LINE#         1519
  C:46A9H         LINE#         1520
  C:46ABH         LINE#         1521
  C:46AEH         LINE#         1522
  C:46B3H         LINE#         1523
  C:46B8H         LINE#         1524
  C:46C6H         LINE#         1525
BL51 BANKED LINKER/LOCATER V6.22                                                      01/05/2016  13:28:04  PAGE 74


  C:46D4H         LINE#         1526
  C:46E2H         LINE#         1527
  C:46F2H         LINE#         1528
  C:4702H         LINE#         1529
  C:4712H         LINE#         1530
  C:4722H         LINE#         1531
  C:4722H         LINE#         1532
  -------         ENDPROC       _SETDIYMODEBYDIY
  C:3A47H         SYMBOL        L?0935
  -------         PROC          L?0934
  -------         ENDPROC       L?0934
  C:3A47H         SYMBOL        L?0935
  -------         PROC          _SETCUPSWATER
  D:0007H         SYMBOL        cookmode
  D:0005H         SYMBOL        texture
  D:0003H         SYMBOL        people
  -------         DO            
  D:0006H         SYMBOL        i
  D:002DH         SYMBOL        j
  -------         ENDDO         
  C:3A4DH         LINE#         1535
  C:3A4DH         LINE#         1536
  C:3A4DH         LINE#         1537
  C:3A51H         LINE#         1539
  C:3A55H         LINE#         1540
  C:3A59H         LINE#         1542
  C:3A63H         LINE#         1543
  C:3A68H         LINE#         1544
  C:3A6DH         LINE#         1545
  C:3A7FH         LINE#         1546
  C:3A7FH         LINE#         1547
  C:3A81H         LINE#         1548
  C:3A81H         LINE#         1549
  C:3A86H         LINE#         1550
  C:3A90H         LINE#         1551
  C:3A9CH         LINE#         1552
  C:3A9CH         LINE#         1553
  C:3AA2H         LINE#         1554
  C:3AA2H         LINE#         1555
  C:3AC1H         LINE#         1558
  C:3AE7H         LINE#         1559
  C:3AE9H         LINE#         1560
  C:3B01H         LINE#         1561
  C:3B11H         LINE#         1562
  C:3B19H         LINE#         1563
  C:3B29H         LINE#         1564
  C:3B39H         LINE#         1565
  C:3B49H         LINE#         1566
  C:3B52H         LINE#         1567
  C:3B57H         LINE#         1568
  C:3B5CH         LINE#         1569
  C:3B66H         LINE#         1570
  C:3B85H         LINE#         1571
  -------         ENDPROC       _SETCUPSWATER
  -------         PROC          _LOADVARPARAM
  D:0007H         SYMBOL        cookMode
  D:002DH         SYMBOL        texture
BL51 BANKED LINKER/LOCATER V6.22                                                      01/05/2016  13:28:04  PAGE 75


  D:0003H         SYMBOL        people
  -------         DO            
  D:0006H         SYMBOL        i
  D:002EH         SYMBOL        j
  -------         ENDDO         
  C:2525H         LINE#         1574
  C:2527H         LINE#         1575
  C:2527H         LINE#         1576
  C:252BH         LINE#         1578
  C:2530H         LINE#         1579
  C:2534H         LINE#         1580
  C:2538H         LINE#         1581
  C:253CH         LINE#         1582
  C:2540H         LINE#         1583
  C:2544H         LINE#         1584
  C:2548H         LINE#         1585
  C:254CH         LINE#         1587
  C:2558H         LINE#         1588
  C:2558H         LINE#         1589
  C:255EH         LINE#         1590
  C:255EH         LINE#         1593
  C:2568H         LINE#         1594
  C:2572H         LINE#         1595
  C:258EH         LINE#         1596
  C:25A1H         LINE#         1597
  C:25ABH         LINE#         1598
  C:25B5H         LINE#         1599
  C:25BFH         LINE#         1600
  C:25C4H         LINE#         1601
  C:25E7H         LINE#         1602
  C:2609H         LINE#         1603
  C:262AH         LINE#         1604
  C:2635H         LINE#         1605
  C:2635H         LINE#         1606
  C:2637H         LINE#         1607
  C:2659H         LINE#         1608
  C:267BH         LINE#         1609
  C:269CH         LINE#         1610
  C:269CH         LINE#         1613
  C:26A1H         LINE#         1614
  C:26A6H         LINE#         1615
  C:26ABH         LINE#         1616
  C:26CEH         LINE#         1619
  C:26D8H         LINE#         1620
  C:26E2H         LINE#         1621
  C:26ECH         LINE#         1622
  C:26F6H         LINE#         1623
  C:2700H         LINE#         1624
  C:270AH         LINE#         1625
  C:2714H         LINE#         1626
  C:271EH         LINE#         1627
  C:2728H         LINE#         1628
  C:2732H         LINE#         1629
  C:273CH         LINE#         1630
  C:2746H         LINE#         1631
  C:2750H         LINE#         1632
  C:275AH         LINE#         1633
BL51 BANKED LINKER/LOCATER V6.22                                                      01/05/2016  13:28:04  PAGE 76


  C:2764H         LINE#         1634
  C:276EH         LINE#         1635
  C:2778H         LINE#         1636
  C:2780H         LINE#         1637
  C:2786H         LINE#         1638
  C:2786H         LINE#         1639
  C:278BH         LINE#         1640
  C:278BH         LINE#         1641
  C:278DH         LINE#         1642
  C:278FH         LINE#         1644
  C:278FH         LINE#         1645
  C:2791H         LINE#         1646
  C:2791H         LINE#         1647
  C:2791H         LINE#         1648
  C:2796H         LINE#         1649
  C:279EH         LINE#         1650
  C:27A6H         LINE#         1651
  C:27C8H         LINE#         1652
  C:27CBH         LINE#         1653
  C:27CBH         LINE#         1654
  C:27CDH         LINE#         1655
  C:27D4H         LINE#         1656
  C:27D4H         LINE#         1657
  C:27D9H         LINE#         1658
  C:27D9H         LINE#         1659
  C:27FBH         LINE#         1660
  C:27FBH         LINE#         1661
  -------         ENDPROC       _LOADVARPARAM
  C:1E3CH         SYMBOL        L?0933
  -------         PROC          L?0932
  -------         ENDPROC       L?0932
  C:1E3CH         SYMBOL        L?0933
  -------         PROC          _FUNCSETDISP
  D:002FH         SYMBOL        Step
  C:1E40H         LINE#         1671
  C:1E42H         LINE#         1672
  C:1E42H         LINE#         1673
  C:1E47H         LINE#         1674
  C:1E4CH         LINE#         1675
  C:1E51H         LINE#         1676
  C:1E54H         LINE#         1678
  C:1E94H         LINE#         1679
  C:1E94H         LINE#         1680
  C:1E94H         LINE#         1681
  C:1E9BH         LINE#         1682
  C:1E9BH         LINE#         1683
  C:1E9DH         LINE#         1684
  C:1E9FH         LINE#         1686
  C:1E9FH         LINE#         1687
  C:1EA8H         LINE#         1688
  C:1EA8H         LINE#         1689
  C:1EA8H         LINE#         1690
  C:1EA8H         LINE#         1691
  C:1EA8H         LINE#         1692
  C:1EA8H         LINE#         1693
  C:1EAAH         LINE#         1694
  C:1EAAH         LINE#         1695
BL51 BANKED LINKER/LOCATER V6.22                                                      01/05/2016  13:28:04  PAGE 77


  C:1EB3H         LINE#         1696
  C:1EB6H         LINE#         1697
  C:1EB6H         LINE#         1698
  C:1EB6H         LINE#         1699
  C:1EB6H         LINE#         1700
  C:1EB8H         LINE#         1701
  C:1EB8H         LINE#         1702
  C:1EC1H         LINE#         1703
  C:1EC8H         LINE#         1704
  C:1ED3H         LINE#         1705
  C:1EE2H         LINE#         1706
  C:1EE9H         LINE#         1707
  C:1EECH         LINE#         1708
  C:1EECH         LINE#         1709
  C:1EF5H         LINE#         1710
  C:1EFCH         LINE#         1711
  C:1F07H         LINE#         1712
  C:1F16H         LINE#         1713
  C:1F20H         LINE#         1714
  C:1F23H         LINE#         1715
  C:1F23H         LINE#         1716
  C:1F2CH         LINE#         1717
  C:1F33H         LINE#         1718
  C:1F43H         LINE#         1719
  C:1F52H         LINE#         1720
  C:1F63H         LINE#         1721
  C:1F63H         LINE#         1722
  C:1F6DH         LINE#         1723
  C:1F70H         LINE#         1725
  C:1F70H         LINE#         1726
  C:1F7AH         LINE#         1727
  C:1F7AH         LINE#         1728
  C:1F7DH         LINE#         1729
  C:1F7DH         LINE#         1730
  C:1F86H         LINE#         1731
  C:1F8DH         LINE#         1732
  C:1F9DH         LINE#         1733
  C:1FACH         LINE#         1734
  C:1FBDH         LINE#         1735
  C:1FBDH         LINE#         1736
  C:1FC7H         LINE#         1737
  C:1FCAH         LINE#         1739
  C:1FCAH         LINE#         1740
  C:1FD4H         LINE#         1741
  C:1FD4H         LINE#         1742
  C:1FD7H         LINE#         1743
  C:1FD7H         LINE#         1744
  C:1FE0H         LINE#         1745
  C:1FE7H         LINE#         1746
  C:1FF3H         LINE#         1747
  C:1FFCH         LINE#         1748
  C:1FFCH         LINE#         1749
  C:2004H         LINE#         1750
  C:2006H         LINE#         1752
  C:2006H         LINE#         1753
  C:2014H         LINE#         1754
  C:2014H         LINE#         1755
BL51 BANKED LINKER/LOCATER V6.22                                                      01/05/2016  13:28:04  PAGE 78


  C:201BH         LINE#         1756
  C:201BH         LINE#         1757
  C:202CH         LINE#         1758
  C:202CH         LINE#         1759
  C:2030H         LINE#         1760
  C:2032H         LINE#         1762
  C:2032H         LINE#         1763
  C:2036H         LINE#         1764
  C:2036H         LINE#         1765
  C:2038H         LINE#         1767
  C:2038H         LINE#         1768
  C:2045H         LINE#         1769
  C:2045H         LINE#         1770
  C:204AH         LINE#         1771
  C:2053H         LINE#         1772
  C:2056H         LINE#         1773
  C:2056H         LINE#         1774
  C:205FH         LINE#         1775
  C:2065H         LINE#         1776
  C:2070H         LINE#         1777
  C:2080H         LINE#         1778
  C:208DH         LINE#         1779
  C:2096H         LINE#         1780
  C:2099H         LINE#         1781
  C:2099H         LINE#         1782
  C:20A2H         LINE#         1783
  C:20A9H         LINE#         1784
  C:20B5H         LINE#         1785
  C:20B8H         LINE#         1786
  C:20B8H         LINE#         1787
  C:20C8H         LINE#         1788
  C:20CDH         LINE#         1789
  C:20CFH         LINE#         1791
  C:20CFH         LINE#         1792
  C:20D8H         LINE#         1793
  C:20D8H         LINE#         1794
  C:20E0H         LINE#         1795
  C:20E2H         LINE#         1797
  C:20E2H         LINE#         1798
  C:20F0H         LINE#         1799
  C:20F0H         LINE#         1800
  C:20F0H         LINE#         1801
  C:20F7H         LINE#         1802
  C:20F7H         LINE#         1803
  C:2108H         LINE#         1804
  C:2108H         LINE#         1805
  C:210CH         LINE#         1806
  C:210EH         LINE#         1808
  C:210EH         LINE#         1809
  C:2112H         LINE#         1810
  C:2112H         LINE#         1811
  C:2114H         LINE#         1813
  C:2114H         LINE#         1814
  C:2121H         LINE#         1815
  C:2121H         LINE#         1816
  C:212AH         LINE#         1817
  C:212CH         LINE#         1818
BL51 BANKED LINKER/LOCATER V6.22                                                      01/05/2016  13:28:04  PAGE 79


  C:212CH         LINE#         1819
  C:2135H         LINE#         1820
  C:213BH         LINE#         1821
  C:2146H         LINE#         1822
  C:2156H         LINE#         1823
  C:2163H         LINE#         1824
  C:2171H         LINE#         1825
  C:2171H         LINE#         1826
  C:2171H         LINE#         1827
  C:2178H         LINE#         1828
  C:217EH         LINE#         1829
  C:2189H         LINE#         1830
  C:2199H         LINE#         1831
  C:21A0H         LINE#         1832
  C:21A0H         LINE#         1833
  C:21A2H         LINE#         1834
  C:21A2H         LINE#         1835
  C:21ABH         LINE#         1836
  C:21B1H         LINE#         1837
  C:21BCH         LINE#         1838
  C:21CFH         LINE#         1839
  C:21DCH         LINE#         1840
  C:21DFH         LINE#         1841
  C:21E0H         LINE#         1842
  C:21E0H         LINE#         1843
  C:21E9H         LINE#         1844
  C:21EFH         LINE#         1845
  C:21FAH         LINE#         1846
  C:220AH         LINE#         1847
  C:2217H         LINE#         1848
  C:2217H         LINE#         1849
  C:2217H         LINE#         1850
  C:2217H         LINE#         1851
  C:2217H         LINE#         1852
  -------         ENDPROC       _FUNCSETDISP
  -------         PROC          RUNPROC
  -------         DO            
  D:002BH         SYMBOL        u16Key
  -------         ENDDO         
  C:1480H         LINE#         1861
  C:1480H         LINE#         1862
  C:1480H         LINE#         1864
  C:1487H         LINE#         1866
  C:148CH         LINE#         1867
  C:148CH         LINE#         1869
  C:1492H         LINE#         1870
  C:1492H         LINE#         1871
  C:149DH         LINE#         1872
  C:149DH         LINE#         1873
  C:149DH         LINE#         1874
  C:14A1H         LINE#         1875
  C:14A3H         LINE#         1876
  C:14A5H         LINE#         1878
  C:14A5H         LINE#         1879
  C:14B0H         LINE#         1880
  C:14B0H         LINE#         1881
  C:14B2H         LINE#         1882
BL51 BANKED LINKER/LOCATER V6.22                                                      01/05/2016  13:28:04  PAGE 80


  C:14B4H         LINE#         1883
  C:14B7H         LINE#         1884
  C:14B9H         LINE#         1885
  C:14BDH         LINE#         1886
  C:14C2H         LINE#         1887
  C:14C2H         LINE#         1888
  C:14C4H         LINE#         1890
  C:14C4H         LINE#         1891
  C:14CBH         LINE#         1892
  C:14CBH         LINE#         1893
  C:14CBH         LINE#         1894
  C:14CBH         LINE#         1896
  C:14DBH         LINE#         1897
  C:14DBH         LINE#         1898
  C:14DBH         LINE#         1899
  C:14DDH         LINE#         1901
  C:14DDH         LINE#         1902
  C:14DDH         LINE#         1904
  C:14E2H         LINE#         1905
  C:14E2H         LINE#         1906
  C:14E8H         LINE#         1907
  C:14E8H         LINE#         1908
  C:14EFH         LINE#         1909
  C:14EFH         LINE#         1910
  C:14FFH         LINE#         1911
  C:14FFH         LINE#         1912
  C:1503H         LINE#         1913
  C:1506H         LINE#         1914
  C:150DH         LINE#         1916
  C:150DH         LINE#         1917
  C:150DH         LINE#         1919
  C:1515H         LINE#         1920
  C:1515H         LINE#         1921
  C:1529H         LINE#         1922
  C:1529H         LINE#         1923
  C:1530H         LINE#         1924
  C:1530H         LINE#         1925
  C:1533H         LINE#         1926
  C:1533H         LINE#         1928
  C:1540H         LINE#         1929
  C:1540H         LINE#         1930
  C:1545H         LINE#         1931
  C:1549H         LINE#         1932
  C:154BH         LINE#         1934
  C:154BH         LINE#         1935
  C:155CH         LINE#         1936
  C:155CH         LINE#         1937
  C:155EH         LINE#         1938
  C:1560H         LINE#         1940
  C:1560H         LINE#         1941
  C:1565H         LINE#         1942
  C:1565H         LINE#         1943
  C:1567H         LINE#         1944
  C:1569H         LINE#         1946
  C:1569H         LINE#         1947
  C:156FH         LINE#         1948
  C:156FH         LINE#         1949
BL51 BANKED LINKER/LOCATER V6.22                                                      01/05/2016  13:28:04  PAGE 81


  C:156FH         LINE#         1950
  C:156FH         LINE#         1951
  C:1572H         LINE#         1952
  C:1575H         LINE#         1953
  C:1579H         LINE#         1954
  C:1579H         LINE#         1956
  C:157CH         LINE#         1957
  C:157CH         LINE#         1959
  C:1585H         LINE#         1960
  C:1585H         LINE#         1961
  C:158AH         LINE#         1962
  C:158EH         LINE#         1963
  C:1590H         LINE#         1965
  C:1590H         LINE#         1966
  C:159EH         LINE#         1967
  C:159EH         LINE#         1968
  C:15A1H         LINE#         1969
  C:15A1H         LINE#         1970
  C:15A4H         LINE#         1971
  C:15A4H         LINE#         1973
  C:15ABH         LINE#         1974
  C:15ABH         LINE#         1975
  C:15AEH         LINE#         1976
  C:15AEH         LINE#         1978
  C:15B3H         LINE#         1979
  C:15B3H         LINE#         1980
  C:15B6H         LINE#         1981
  C:15B8H         LINE#         1983
  C:15B8H         LINE#         1984
  C:15C3H         LINE#         1985
  C:15C3H         LINE#         1986
  C:15C5H         LINE#         1987
  C:15C7H         LINE#         1989
  C:15C7H         LINE#         1990
  C:15CDH         LINE#         1991
  C:15CDH         LINE#         1992
  C:15CDH         LINE#         1993
  C:15D0H         LINE#         1994
  C:15D4H         LINE#         1995
  C:15D4H         LINE#         1996
  C:15D7H         LINE#         1997
  C:15D7H         LINE#         1999
  C:15D7H         LINE#         2000
  C:15D7H         LINE#         2002
  C:15DFH         LINE#         2003
  C:15DFH         LINE#         2004
  C:15F3H         LINE#         2005
  C:15F3H         LINE#         2006
  C:15FDH         LINE#         2007
  C:15FDH         LINE#         2008
  C:1600H         LINE#         2009
  C:1600H         LINE#         2011
  C:160DH         LINE#         2012
  C:160DH         LINE#         2013
  C:1612H         LINE#         2014
  C:1616H         LINE#         2015
  C:1618H         LINE#         2017
BL51 BANKED LINKER/LOCATER V6.22                                                      01/05/2016  13:28:04  PAGE 82


  C:1618H         LINE#         2018
  C:1629H         LINE#         2019
  C:1629H         LINE#         2020
  C:162DH         LINE#         2021
  C:162DH         LINE#         2022
  C:1630H         LINE#         2023
  C:1632H         LINE#         2024
  C:1634H         LINE#         2026
  C:1634H         LINE#         2027
  C:1636H         LINE#         2028
  C:1636H         LINE#         2029
  C:1638H         LINE#         2031
  C:1638H         LINE#         2032
  C:163DH         LINE#         2033
  C:163DH         LINE#         2034
  C:1641H         LINE#         2035
  C:1641H         LINE#         2036
  C:1644H         LINE#         2037
  C:1646H         LINE#         2038
  C:1648H         LINE#         2040
  C:1648H         LINE#         2041
  C:164AH         LINE#         2042
  C:164AH         LINE#         2043
  C:164CH         LINE#         2045
  C:164CH         LINE#         2046
  C:1650H         LINE#         2047
  C:1650H         LINE#         2048
  C:1653H         LINE#         2049
  C:1655H         LINE#         2050
  C:1657H         LINE#         2052
  C:1657H         LINE#         2053
  C:165DH         LINE#         2054
  C:165DH         LINE#         2055
  C:165DH         LINE#         2056
  C:165DH         LINE#         2057
  C:165DH         LINE#         2058
  C:1660H         LINE#         2059
  C:1663H         LINE#         2060
  C:1667H         LINE#         2061
  C:1667H         LINE#         2063
  C:166AH         LINE#         2064
  C:166AH         LINE#         2066
  C:1677H         LINE#         2067
  C:1677H         LINE#         2068
  C:167AH         LINE#         2069
  C:167CH         LINE#         2070
  C:167EH         LINE#         2072
  C:167EH         LINE#         2073
  C:1682H         LINE#         2074
  C:1682H         LINE#         2075
  C:1685H         LINE#         2076
  C:1687H         LINE#         2077
  C:1689H         LINE#         2079
  C:1689H         LINE#         2080
  C:168FH         LINE#         2081
  C:168FH         LINE#         2082
  C:168FH         LINE#         2083
BL51 BANKED LINKER/LOCATER V6.22                                                      01/05/2016  13:28:04  PAGE 83


  C:1692H         LINE#         2084
  C:1692H         LINE#         2085
  C:1695H         LINE#         2086
  C:1695H         LINE#         2088
  C:169CH         LINE#         2089
  C:169CH         LINE#         2090
  C:169FH         LINE#         2091
  C:169FH         LINE#         2093
  C:16A4H         LINE#         2094
  C:16A4H         LINE#         2095
  C:16A7H         LINE#         2096
  C:16A9H         LINE#         2098
  C:16A9H         LINE#         2099
  C:16B4H         LINE#         2100
  C:16B4H         LINE#         2101
  C:16B6H         LINE#         2102
  C:16B8H         LINE#         2104
  C:16B8H         LINE#         2105
  C:16BEH         LINE#         2106
  C:16BEH         LINE#         2107
  C:16BEH         LINE#         2108
  C:16C1H         LINE#         2109
  C:16C5H         LINE#         2110
  C:16C5H         LINE#         2111
  C:16C8H         LINE#         2112
  C:16C8H         LINE#         2114
  C:16C8H         LINE#         2115
  C:16C8H         LINE#         2117
  C:16CDH         LINE#         2118
  C:16CDH         LINE#         2119
  C:16D3H         LINE#         2120
  C:16D3H         LINE#         2121
  C:16DAH         LINE#         2122
  C:16DAH         LINE#         2123
  C:16E1H         LINE#         2124
  C:16E1H         LINE#         2125
  C:16E4H         LINE#         2126
  C:16E4H         LINE#         2127
  C:16EAH         LINE#         2128
  C:16EAH         LINE#         2129
  C:16EEH         LINE#         2130
  C:16F0H         LINE#         2131
  C:16F2H         LINE#         2132
  C:16F4H         LINE#         2133
  C:16F6H         LINE#         2134
  C:16F6H         LINE#         2135
  C:1703H         LINE#         2136
  C:1705H         LINE#         2137
  C:1709H         LINE#         2138
  C:170BH         LINE#         2140
  C:170BH         LINE#         2141
  C:1712H         LINE#         2142
  C:1712H         LINE#         2143
  C:1716H         LINE#         2144
  C:1716H         LINE#         2145
  C:1716H         LINE#         2146
  C:1716H         LINE#         2147
BL51 BANKED LINKER/LOCATER V6.22                                                      01/05/2016  13:28:04  PAGE 84


  C:1718H         LINE#         2149
  C:1718H         LINE#         2150
  C:171EH         LINE#         2151
  C:171EH         LINE#         2152
  C:1722H         LINE#         2153
  C:1726H         LINE#         2154
  C:172BH         LINE#         2155
  C:172BH         LINE#         2156
  C:172BH         LINE#         2157
  C:172BH         LINE#         2158
  C:172BH         LINE#         2160
  C:1730H         LINE#         2161
  C:1730H         LINE#         2162
  C:1736H         LINE#         2163
  C:1736H         LINE#         2164
  C:173DH         LINE#         2165
  C:173DH         LINE#         2166
  C:1740H         LINE#         2167
  C:1740H         LINE#         2168
  C:174BH         LINE#         2169
  C:174BH         LINE#         2170
  C:174EH         LINE#         2171
  C:1751H         LINE#         2172
  C:1755H         LINE#         2173
  C:1757H         LINE#         2174
  C:1759H         LINE#         2175
  C:175BH         LINE#         2176
  C:175DH         LINE#         2177
  C:175FH         LINE#         2178
  C:1763H         LINE#         2179
  C:1768H         LINE#         2180
  C:1768H         LINE#         2181
  C:1768H         LINE#         2182
  C:1768H         LINE#         2183
  C:1768H         LINE#         2184
  C:1768H         LINE#         2186
  C:1770H         LINE#         2187
  C:1770H         LINE#         2188
  C:1779H         LINE#         2189
  C:1779H         LINE#         2190
  C:17ABH         LINE#         2191
  C:17ABH         LINE#         2192
  C:17ABH         LINE#         2193
  C:17B7H         LINE#         2194
  C:17B7H         LINE#         2195
  C:17B9H         LINE#         2196
  C:17C3H         LINE#         2197
  C:17C3H         LINE#         2198
  C:17C5H         LINE#         2200
  C:17C5H         LINE#         2201
  C:17C9H         LINE#         2202
  C:17CBH         LINE#         2203
  C:17CDH         LINE#         2205
  C:17CDH         LINE#         2206
  C:17D0H         LINE#         2207
  C:17D4H         LINE#         2208
  C:17D9H         LINE#         2209
BL51 BANKED LINKER/LOCATER V6.22                                                      01/05/2016  13:28:04  PAGE 85


  C:17D9H         LINE#         2210
  C:17DCH         LINE#         2211
  C:17DCH         LINE#         2212
  C:17DFH         LINE#         2213
  C:17E3H         LINE#         2214
  C:17E5H         LINE#         2216
  C:17E5H         LINE#         2217
  C:17E9H         LINE#         2218
  C:17EBH         LINE#         2219
  C:17EDH         LINE#         2221
  C:17EDH         LINE#         2222
  C:17F1H         LINE#         2223
  C:17F3H         LINE#         2224
  C:17F5H         LINE#         2226
  C:17F5H         LINE#         2227
  C:17F9H         LINE#         2228
  C:17FBH         LINE#         2229
  C:17FBH         LINE#         2230
  C:17FDH         LINE#         2232
  C:17FDH         LINE#         2233
  C:1808H         LINE#         2234
  C:1808H         LINE#         2235
  C:180AH         LINE#         2236
  C:180AH         LINE#         2237
  C:180EH         LINE#         2238
  C:1811H         LINE#         2239
  C:1813H         LINE#         2241
  C:1813H         LINE#         2242
  C:1817H         LINE#         2243
  C:181BH         LINE#         2244
  C:1820H         LINE#         2245
  C:1820H         LINE#         2247
  C:1820H         LINE#         2248
  C:1820H         LINE#         2249
  C:1820H         LINE#         2250
  C:1820H         LINE#         2251
  C:1820H         LINE#         2254
  C:1825H         LINE#         2255
  C:1825H         LINE#         2256
  C:182BH         LINE#         2257
  C:182BH         LINE#         2258
  C:1830H         LINE#         2259
  C:1833H         LINE#         2260
  C:1833H         LINE#         2261
  C:1833H         LINE#         2265
  C:1836H         LINE#         2266
  C:1836H         LINE#         2267
  C:1838H         LINE#         2268
  C:183AH         LINE#         2269
  C:183AH         LINE#         2271
  C:183DH         LINE#         2272
  C:183DH         LINE#         2273
  C:1845H         LINE#         2274
  C:1845H         LINE#         2275
  C:1846H         LINE#         2276
  C:1849H         LINE#         2277
  C:1849H         LINE#         2278
BL51 BANKED LINKER/LOCATER V6.22                                                      01/05/2016  13:28:04  PAGE 86


  C:184BH         LINE#         2279
  C:184BH         LINE#         2280
  C:184BH         LINE#         2282
  C:1853H         LINE#         2283
  C:1853H         LINE#         2284
  C:1854H         LINE#         2285
  C:1857H         LINE#         2286
  C:1857H         LINE#         2287
  C:185EH         LINE#         2288
  C:1861H         LINE#         2289
  C:1861H         LINE#         2290
  C:1861H         LINE#         2291
  C:1861H         LINE#         2293
  C:1864H         LINE#         2294
  C:1864H         LINE#         2295
  C:1867H         LINE#         2296
  C:1867H         LINE#         2298
  C:186DH         LINE#         2299
  C:186DH         LINE#         2300
  C:186FH         LINE#         2301
  C:1871H         LINE#         2302
  C:1873H         LINE#         2303
  C:1875H         LINE#         2304
  C:1880H         LINE#         2305
  C:1880H         LINE#         2306
  C:1883H         LINE#         2307
  C:1883H         LINE#         2308
  C:1885H         LINE#         2309
  C:1887H         LINE#         2310
  C:1887H         LINE#         2311
  C:1887H         LINE#         2312
  C:1895H         LINE#         2313
  C:1895H         LINE#         2314
  C:18A4H         LINE#         2315
  C:18A4H         LINE#         2316
  C:18AEH         LINE#         2317
  C:18AEH         LINE#         2318
  C:18B1H         LINE#         2319
  C:18B4H         LINE#         2320
  C:18B6H         LINE#         2321
  C:18B8H         LINE#         2322
  C:18BAH         LINE#         2323
  C:18BCH         LINE#         2324
  C:18BCH         LINE#         2325
  C:18BCH         LINE#         2326
  C:18BDH         LINE#         2328
  C:18BDH         LINE#         2329
  C:18C7H         LINE#         2330
  C:18C7H         LINE#         2332
  C:18D0H         LINE#         2333
  C:18D0H         LINE#         2334
  C:18D3H         LINE#         2335
  C:18D3H         LINE#         2336
  C:18D5H         LINE#         2337
  C:18D6H         LINE#         2339
  C:18D6H         LINE#         2340
  C:18DCH         LINE#         2341
BL51 BANKED LINKER/LOCATER V6.22                                                      01/05/2016  13:28:04  PAGE 87


  C:18DCH         LINE#         2342
  C:18DEH         LINE#         2343
  C:18E0H         LINE#         2344
  C:18EAH         LINE#         2345
  C:18EAH         LINE#         2346
  C:18EDH         LINE#         2347
  C:18F1H         LINE#         2348
  C:18F1H         LINE#         2349
  C:18F1H         LINE#         2350
  C:18F1H         LINE#         2351
  C:18F4H         LINE#         2353
  C:18F4H         LINE#         2354
  C:18FAH         LINE#         2355
  C:18FAH         LINE#         2356
  C:18FCH         LINE#         2357
  C:1905H         LINE#         2358
  C:191CH         LINE#         2359
  C:191CH         LINE#         2360
  C:192AH         LINE#         2361
  C:192AH         LINE#         2362
  C:192EH         LINE#         2363
  C:1931H         LINE#         2364
  C:1938H         LINE#         2365
  C:193BH         LINE#         2367
  C:193BH         LINE#         2368
  C:196BH         LINE#         2371
  C:196BH         LINE#         2372
  C:196EH         LINE#         2373
  C:1970H         LINE#         2375
  C:1970H         LINE#         2376
  C:1973H         LINE#         2377
  C:1975H         LINE#         2378
  C:1977H         LINE#         2379
  C:1977H         LINE#         2380
  C:197EH         LINE#         2382
  C:197EH         LINE#         2383
  C:197EH         LINE#         2391
  C:197EH         LINE#         2393
  C:1981H         LINE#         2394
  C:1983H         LINE#         2395
  C:1986H         LINE#         2396
  C:1988H         LINE#         2397
  C:198AH         LINE#         2398
  C:198CH         LINE#         2399
  C:198EH         LINE#         2401
  C:1995H         LINE#         2402
  C:1995H         LINE#         2403
  C:1998H         LINE#         2404
  C:1998H         LINE#         2405
  C:199AH         LINE#         2407
  C:199EH         LINE#         2408
  C:19A1H         LINE#         2411
  C:19A5H         LINE#         2412
  C:19A8H         LINE#         2413
  C:19B5H         LINE#         2414
  C:19B5H         LINE#         2415
  C:19BBH         LINE#         2416
BL51 BANKED LINKER/LOCATER V6.22                                                      01/05/2016  13:28:04  PAGE 88


  C:19C1H         LINE#         2417
  C:19C1H         LINE#         2420
  C:19CDH         LINE#         2421
  C:19CDH         LINE#         2422
  C:19CDH         LINE#         2423
  C:19CDH         LINE#         2424
  C:19CFH         LINE#         2426
  C:19CFH         LINE#         2427
  C:19D3H         LINE#         2428
  C:19D3H         LINE#         2429
  C:19DCH         LINE#         2430
  C:19DCH         LINE#         2431
  C:19DCH         LINE#         2432
  C:19DCH         LINE#         2433
  C:19DCH         LINE#         2434
  C:19DCH         LINE#         2435
  C:19DCH         LINE#         2436
  C:19DEH         LINE#         2438
  C:19DEH         LINE#         2439
  C:19E9H         LINE#         2440
  C:19E9H         LINE#         2442
  C:19EBH         LINE#         2443
  C:19EDH         LINE#         2444
  C:19EDH         LINE#         2445
  C:19EDH         LINE#         2447
  C:19F0H         LINE#         2448
  C:19F0H         LINE#         2449
  C:19F2H         LINE#         2450
  C:19FBH         LINE#         2451
  C:19FEH         LINE#         2452
  C:19FEH         LINE#         2453
  C:19FEH         LINE#         2454
  C:19FEH         LINE#         2455
  -------         ENDPROC       RUNPROC
  C:19FFH         SYMBOL        L?0937
  -------         PROC          L?0936
  -------         ENDPROC       L?0936
  C:19FFH         SYMBOL        L?0937
  -------         PROC          _FUNCRUNDISP
  D:002DH         SYMBOL        Step
  -------         DO            
  D:002EH         SYMBOL        i
  D:0004H         SYMBOL        j
  -------         ENDDO         
  C:1A03H         LINE#         2465
  C:1A05H         LINE#         2466
  C:1A05H         LINE#         2471
  C:1A0AH         LINE#         2472
  C:1A0FH         LINE#         2473
  C:1A14H         LINE#         2475
  C:1A45H         LINE#         2476
  C:1A45H         LINE#         2477
  C:1A45H         LINE#         2478
  C:1A4EH         LINE#         2479
  C:1A55H         LINE#         2480
  C:1A61H         LINE#         2481
  C:1A64H         LINE#         2482
BL51 BANKED LINKER/LOCATER V6.22                                                      01/05/2016  13:28:04  PAGE 89


  C:1A64H         LINE#         2483
  C:1A69H         LINE#         2484
  C:1A69H         LINE#         2485
  C:1A71H         LINE#         2486
  C:1A73H         LINE#         2488
  C:1A73H         LINE#         2489
  C:1A83H         LINE#         2490
  C:1A83H         LINE#         2491
  C:1A88H         LINE#         2492
  C:1A8BH         LINE#         2494
  C:1A8BH         LINE#         2496
  C:1A92H         LINE#         2497
  C:1A92H         LINE#         2498
  C:1A98H         LINE#         2499
  C:1A98H         LINE#         2500
  C:1AA5H         LINE#         2501
  C:1AA5H         LINE#         2502
  C:1AB3H         LINE#         2503
  C:1AB5H         LINE#         2505
  C:1AB5H         LINE#         2506
  C:1AC5H         LINE#         2507
  C:1AC5H         LINE#         2508
  C:1AC7H         LINE#         2510
  C:1AC7H         LINE#         2511
  C:1AD4H         LINE#         2512
  C:1AD4H         LINE#         2513
  C:1ADDH         LINE#         2514
  C:1ADFH         LINE#         2516
  C:1ADFH         LINE#         2517
  C:1AECH         LINE#         2518
  C:1AECH         LINE#         2519
  C:1AECH         LINE#         2520
  C:1AEEH         LINE#         2522
  C:1AEEH         LINE#         2523
  C:1AFCH         LINE#         2524
  C:1AFCH         LINE#         2525
  C:1B09H         LINE#         2526
  C:1B0BH         LINE#         2528
  C:1B0BH         LINE#         2529
  C:1B1BH         LINE#         2530
  C:1B1BH         LINE#         2531
  C:1B1BH         LINE#         2532
  C:1B1BH         LINE#         2533
  C:1B22H         LINE#         2534
  C:1B22H         LINE#         2536
  C:1B33H         LINE#         2537
  C:1B33H         LINE#         2538
  C:1B37H         LINE#         2539
  C:1B39H         LINE#         2541
  C:1B39H         LINE#         2542
  C:1B3DH         LINE#         2543
  C:1B3DH         LINE#         2544
  C:1B3FH         LINE#         2546
  C:1B3FH         LINE#         2548
  C:1B44H         LINE#         2549
  C:1B44H         LINE#         2550
  C:1B4AH         LINE#         2551
BL51 BANKED LINKER/LOCATER V6.22                                                      01/05/2016  13:28:04  PAGE 90


  C:1B4CH         LINE#         2553
  C:1B4CH         LINE#         2554
  C:1B59H         LINE#         2555
  C:1B64H         LINE#         2556
  C:1B64H         LINE#         2557
  C:1B71H         LINE#         2558
  C:1B71H         LINE#         2559
  C:1B71H         LINE#         2560
  C:1B71H         LINE#         2561
  C:1B76H         LINE#         2562
  C:1B7BH         LINE#         2563
  C:1B85H         LINE#         2564
  C:1B8DH         LINE#         2567
  C:1B93H         LINE#         2568
  C:1B93H         LINE#         2569
  C:1B9AH         LINE#         2570
  C:1BA0H         LINE#         2571
  C:1BA8H         LINE#         2572
  C:1BAFH         LINE#         2573
  C:1BB8H         LINE#         2574
  C:1BBFH         LINE#         2575
  C:1BCBH         LINE#         2576
  C:1BD5H         LINE#         2577
  C:1BE4H         LINE#         2578
  C:1BF3H         LINE#         2579
  C:1C03H         LINE#         2580
  C:1C08H         LINE#         2581
  C:1C08H         LINE#         2584
  C:1C08H         LINE#         2585
  C:1C08H         LINE#         2586
  C:1C11H         LINE#         2587
  C:1C18H         LINE#         2588
  C:1C24H         LINE#         2589
  C:1C33H         LINE#         2590
  C:1C37H         LINE#         2591
  C:1C3AH         LINE#         2592
  C:1C3AH         LINE#         2593
  C:1C43H         LINE#         2594
  C:1C4AH         LINE#         2595
  C:1C56H         LINE#         2596
  C:1C65H         LINE#         2597
  C:1C78H         LINE#         2598
  C:1C7AH         LINE#         2599
  C:1C7AH         LINE#         2600
  C:1C83H         LINE#         2601
  C:1C8AH         LINE#         2602
  C:1C9AH         LINE#         2603
  C:1CA9H         LINE#         2604
  C:1CADH         LINE#         2605
  C:1CAFH         LINE#         2606
  C:1CAFH         LINE#         2607
  C:1CB8H         LINE#         2608
  C:1CBFH         LINE#         2609
  C:1CCFH         LINE#         2610
  C:1CDEH         LINE#         2611
  C:1CFAH         LINE#         2612
  C:1CFAH         LINE#         2613
BL51 BANKED LINKER/LOCATER V6.22                                                      01/05/2016  13:28:04  PAGE 91


  C:1CFAH         LINE#         2614
  C:1D03H         LINE#         2615
  C:1D0AH         LINE#         2616
  C:1D16H         LINE#         2617
  C:1D19H         LINE#         2618
  C:1D19H         LINE#         2619
  C:1D29H         LINE#         2620
  C:1D2EH         LINE#         2621
  C:1D30H         LINE#         2623
  C:1D30H         LINE#         2624
  C:1D39H         LINE#         2625
  C:1D39H         LINE#         2627
  C:1D41H         LINE#         2628
  C:1D43H         LINE#         2630
  C:1D43H         LINE#         2632
  C:1D51H         LINE#         2633
  C:1D51H         LINE#         2634
  C:1D51H         LINE#         2635
  C:1D58H         LINE#         2636
  C:1D58H         LINE#         2637
  C:1D64H         LINE#         2638
  C:1D64H         LINE#         2639
  C:1D68H         LINE#         2640
  C:1D68H         LINE#         2641
  C:1D6AH         LINE#         2643
  C:1D6AH         LINE#         2644
  C:1D6FH         LINE#         2645
  C:1D6FH         LINE#         2646
  C:1D75H         LINE#         2647
  C:1D77H         LINE#         2649
  C:1D77H         LINE#         2650
  C:1D84H         LINE#         2651
  C:1D8FH         LINE#         2652
  C:1D8FH         LINE#         2653
  C:1D9CH         LINE#         2654
  C:1D9CH         LINE#         2655
  C:1D9CH         LINE#         2656
  C:1D9CH         LINE#         2657
  C:1DA5H         LINE#         2658
  C:1DA7H         LINE#         2659
  C:1DA7H         LINE#         2660
  C:1DB0H         LINE#         2661
  C:1DB6H         LINE#         2662
  C:1DC1H         LINE#         2663
  C:1DD1H         LINE#         2664
  C:1DD6H         LINE#         2665
  C:1DD6H         LINE#         2666
  C:1DDAH         LINE#         2667
  C:1DDCH         LINE#         2669
  C:1DDCH         LINE#         2670
  C:1DE9H         LINE#         2671
  C:1DE9H         LINE#         2672
  C:1DF4H         LINE#         2673
  C:1DF4H         LINE#         2674
  C:1DF4H         LINE#         2675
  C:1DFDH         LINE#         2676
  C:1E04H         LINE#         2677
BL51 BANKED LINKER/LOCATER V6.22                                                      01/05/2016  13:28:04  PAGE 92


  C:1E10H         LINE#         2678
  C:1E1EH         LINE#         2679
  C:1E29H         LINE#         2680
  C:1E29H         LINE#         2681
  C:1E36H         LINE#         2682
  C:1E36H         LINE#         2683
  C:1E3BH         LINE#         2684
  C:1E3BH         LINE#         2685
  C:1E3BH         LINE#         2686
  C:1E3BH         LINE#         2687
  C:1E3BH         LINE#         2688
  -------         ENDPROC       _FUNCRUNDISP
  -------         PROC          WARMPROC
  -------         DO            
  D:002BH         SYMBOL        u16Key
  D:002DH         SYMBOL        u8TopDegree
  D:002EH         SYMBOL        u8BotDegree
  -------         ENDDO         
  C:373DH         LINE#         2698
  C:373DH         LINE#         2699
  C:373DH         LINE#         2701
  C:3744H         LINE#         2702
  C:374BH         LINE#         2704
  C:3752H         LINE#         2706
  C:3758H         LINE#         2707
  C:3758H         LINE#         2708
  C:375AH         LINE#         2710
  C:3761H         LINE#         2711
  C:3761H         LINE#         2712
  C:3768H         LINE#         2713
  C:3768H         LINE#         2714
  C:376BH         LINE#         2715
  C:376EH         LINE#         2716
  C:3771H         LINE#         2717
  C:3773H         LINE#         2718
  C:3775H         LINE#         2720
  C:3775H         LINE#         2721
  C:377DH         LINE#         2722
  C:377DH         LINE#         2723
  C:377FH         LINE#         2724
  C:3781H         LINE#         2725
  C:3783H         LINE#         2726
  C:3785H         LINE#         2728
  C:3785H         LINE#         2729
  C:3787H         LINE#         2730
  C:3789H         LINE#         2731
  C:378BH         LINE#         2732
  C:378BH         LINE#         2733
  C:378BH         LINE#         2734
  C:3790H         LINE#         2735
  C:3792H         LINE#         2737
  C:3792H         LINE#         2738
  C:3795H         LINE#         2739
  C:3798H         LINE#         2740
  C:379BH         LINE#         2741
  C:379EH         LINE#         2742
  C:37A7H         LINE#         2743
BL51 BANKED LINKER/LOCATER V6.22                                                      01/05/2016  13:28:04  PAGE 93


  C:37B0H         LINE#         2744
  C:37B9H         LINE#         2745
  C:37C2H         LINE#         2746
  C:37C2H         LINE#         2748
  C:37C8H         LINE#         2749
  C:37C8H         LINE#         2750
  C:37CAH         LINE#         2751
  C:37D3H         LINE#         2752
  C:37E2H         LINE#         2753
  C:37E2H         LINE#         2754
  C:37E5H         LINE#         2756
  C:37E5H         LINE#         2757
  C:37ECH         LINE#         2758
  C:37F2H         LINE#         2759
  C:37FDH         LINE#         2760
  C:380CH         LINE#         2761
  C:3811H         LINE#         2762
  C:3816H         LINE#         2763
  C:381BH         LINE#         2764
  C:381BH         LINE#         2765
  C:381DH         LINE#         2767
  C:381DH         LINE#         2768
  C:3828H         LINE#         2769
  C:3828H         LINE#         2770
  C:382DH         LINE#         2771
  C:382DH         LINE#         2772
  C:3831H         LINE#         2773
  C:3831H         LINE#         2774
  C:3836H         LINE#         2775
  C:383BH         LINE#         2776
  C:3840H         LINE#         2777
  C:3845H         LINE#         2778
  C:3849H         LINE#         2779
  C:3849H         LINE#         2782
  C:384CH         LINE#         2783
  C:384CH         LINE#         2784
  C:3854H         LINE#         2785
  C:3854H         LINE#         2786
  C:3855H         LINE#         2787
  C:3858H         LINE#         2788
  C:3858H         LINE#         2789
  C:385DH         LINE#         2790
  C:385DH         LINE#         2791
  C:385DH         LINE#         2792
  C:385DH         LINE#         2793
  C:385DH         LINE#         2795
  C:3862H         LINE#         2796
  C:3862H         LINE#         2797
  C:3868H         LINE#         2798
  C:3868H         LINE#         2799
  C:386BH         LINE#         2800
  C:386BH         LINE#         2801
  C:386DH         LINE#         2802
  C:386DH         LINE#         2803
  C:386DH         LINE#         2804
  C:386DH         LINE#         2806
  C:3872H         LINE#         2807
BL51 BANKED LINKER/LOCATER V6.22                                                      01/05/2016  13:28:04  PAGE 94


  C:3872H         LINE#         2808
  C:3878H         LINE#         2809
  C:3878H         LINE#         2810
  C:387BH         LINE#         2811
  C:387BH         LINE#         2812
  C:3882H         LINE#         2813
  C:3884H         LINE#         2815
  C:3884H         LINE#         2816
  C:3887H         LINE#         2817
  C:3887H         LINE#         2818
  C:3887H         LINE#         2820
  C:3897H         LINE#         2821
  C:3897H         LINE#         2822
  C:389AH         LINE#         2823
  C:38A1H         LINE#         2824
  C:38A1H         LINE#         2825
  C:38A1H         LINE#         2827
  C:38A6H         LINE#         2828
  C:38A6H         LINE#         2829
  C:38ACH         LINE#         2830
  C:38ACH         LINE#         2831
  C:38AFH         LINE#         2832
  C:38AFH         LINE#         2833
  C:38B6H         LINE#         2834
  C:38B8H         LINE#         2836
  C:38B8H         LINE#         2837
  C:38BBH         LINE#         2838
  C:38BBH         LINE#         2839
  C:38BBH         LINE#         2840
  C:38CBH         LINE#         2841
  C:38CBH         LINE#         2842
  C:38CFH         LINE#         2843
  C:38D2H         LINE#         2844
  C:38D9H         LINE#         2845
  C:38D9H         LINE#         2846
  C:38D9H         LINE#         2847
  -------         ENDPROC       WARMPROC
  -------         PROC          ERRORPROC
  -------         DO            
  D:0006H         SYMBOL        u16Key
  -------         ENDDO         
  C:5AD8H         LINE#         2857
  C:5AD8H         LINE#         2858
  C:5AD8H         LINE#         2860
  C:5ADBH         LINE#         2863
  C:5ADFH         LINE#         2864
  C:5ADFH         LINE#         2865
  C:5AE5H         LINE#         2866
  C:5AE5H         LINE#         2867
  C:5AE8H         LINE#         2868
  C:5AEBH         LINE#         2869
  C:5AEBH         LINE#         2870
  C:5AEFH         LINE#         2871
  C:5AF1H         LINE#         2873
  C:5AF1H         LINE#         2874
  C:5AF1H         LINE#         2876
  C:5AF5H         LINE#         2877
BL51 BANKED LINKER/LOCATER V6.22                                                      01/05/2016  13:28:04  PAGE 95


  C:5AF5H         LINE#         2879
  C:5AF8H         LINE#         2880
  C:5AFAH         LINE#         2881
  C:5B01H         LINE#         2883
  C:5B01H         LINE#         2884
  -------         ENDPROC       ERRORPROC
  -------         PROC          POWERDOWNPROC
  -------         DO            
  D:0006H         SYMBOL        u16Key
  -------         ENDDO         
  C:59F6H         LINE#         2895
  C:59F6H         LINE#         2896
  C:59F6H         LINE#         2898
  C:59F9H         LINE#         2900
  C:5A02H         LINE#         2901
  C:5A02H         LINE#         2902
  C:5A08H         LINE#         2903
  C:5A08H         LINE#         2904
  C:5A0BH         LINE#         2905
  C:5A15H         LINE#         2907
  C:5A15H         LINE#         2908
  C:5A15H         LINE#         2911
  C:5A1AH         LINE#         2912
  C:5A1CH         LINE#         2913
  C:5A1FH         LINE#         2914
  C:5A21H         LINE#         2915
  C:5A23H         LINE#         2916
  C:5A25H         LINE#         2917
  C:5A27H         LINE#         2918
  -------         ENDPROC       POWERDOWNPROC
  -------         PROC          SELFCHECKPROC
  -------         DO            
  D:002BH         SYMBOL        u16Key
  -------         ENDDO         
  C:3B86H         LINE#         2928
  C:3B86H         LINE#         2929
  C:3B86H         LINE#         2931
  C:3B8DH         LINE#         2933
  C:3B92H         LINE#         2934
  C:3B92H         LINE#         2935
  C:3B98H         LINE#         2936
  C:3B98H         LINE#         2937
  C:3B9EH         LINE#         2938
  C:3B9EH         LINE#         2939
  C:3B9FH         LINE#         2940
  C:3BA1H         LINE#         2942
  C:3BA1H         LINE#         2943
  C:3BA4H         LINE#         2944
  C:3BA4H         LINE#         2945
  C:3BA4H         LINE#         2946
  C:3BA4H         LINE#         2948
  C:3BA9H         LINE#         2949
  C:3BA9H         LINE#         2950
  C:3BAFH         LINE#         2951
  C:3BAFH         LINE#         2952
  C:3BB8H         LINE#         2953
  C:3BB8H         LINE#         2954
BL51 BANKED LINKER/LOCATER V6.22                                                      01/05/2016  13:28:04  PAGE 96


  C:3BBBH         LINE#         2955
  C:3BBBH         LINE#         2956
  C:3BBBH         LINE#         2957
  C:3BBBH         LINE#         2959
  C:3BC0H         LINE#         2960
  C:3BC0H         LINE#         2961
  C:3BC6H         LINE#         2962
  C:3BC6H         LINE#         2963
  C:3BCCH         LINE#         2964
  C:3BCCH         LINE#         2965
  C:3BCDH         LINE#         2966
  C:3BCDH         LINE#         2967
  C:3BCDH         LINE#         2968
  C:3BCDH         LINE#         2970
  C:3BD2H         LINE#         2971
  C:3BD2H         LINE#         2972
  C:3BD8H         LINE#         2973
  C:3BD8H         LINE#         2974
  C:3BDEH         LINE#         2975
  C:3BDEH         LINE#         2976
  C:3BDFH         LINE#         2977
  C:3BDFH         LINE#         2978
  C:3BDFH         LINE#         2979
  C:3BDFH         LINE#         2981
  C:3BE4H         LINE#         2982
  C:3BE4H         LINE#         2983
  C:3BEAH         LINE#         2984
  C:3BEAH         LINE#         2985
  C:3BF0H         LINE#         2986
  C:3BF0H         LINE#         2987
  C:3BF1H         LINE#         2988
  C:3BF1H         LINE#         2989
  C:3BF1H         LINE#         2990
  C:3BF1H         LINE#         2992
  C:3BF6H         LINE#         2993
  C:3BF6H         LINE#         2994
  C:3BFCH         LINE#         2995
  C:3BFCH         LINE#         2996
  C:3C02H         LINE#         2997
  C:3C02H         LINE#         2998
  C:3C03H         LINE#         2999
  C:3C03H         LINE#         3000
  C:3C03H         LINE#         3001
  C:3C03H         LINE#         3003
  C:3C08H         LINE#         3004
  C:3C08H         LINE#         3005
  C:3C0EH         LINE#         3006
  C:3C0EH         LINE#         3007
  C:3C14H         LINE#         3008
  C:3C14H         LINE#         3009
  C:3C15H         LINE#         3010
  C:3C15H         LINE#         3011
  C:3C15H         LINE#         3012
  C:3C15H         LINE#         3014
  C:3C1AH         LINE#         3015
  C:3C1AH         LINE#         3016
  C:3C20H         LINE#         3017
BL51 BANKED LINKER/LOCATER V6.22                                                      01/05/2016  13:28:04  PAGE 97


  C:3C20H         LINE#         3018
  C:3C26H         LINE#         3019
  C:3C26H         LINE#         3020
  C:3C27H         LINE#         3021
  C:3C27H         LINE#         3022
  C:3C27H         LINE#         3023
  C:3C27H         LINE#         3025
  C:3C2CH         LINE#         3026
  C:3C2CH         LINE#         3027
  C:3C32H         LINE#         3028
  C:3C32H         LINE#         3029
  C:3C38H         LINE#         3030
  C:3C38H         LINE#         3031
  C:3C39H         LINE#         3032
  C:3C39H         LINE#         3033
  C:3C39H         LINE#         3034
  C:3C39H         LINE#         3036
  C:3C3EH         LINE#         3037
  C:3C3EH         LINE#         3038
  C:3C44H         LINE#         3039
  C:3C44H         LINE#         3040
  C:3C4AH         LINE#         3041
  C:3C4AH         LINE#         3042
  C:3C4BH         LINE#         3043
  C:3C4BH         LINE#         3044
  C:3C4BH         LINE#         3045
  C:3C4BH         LINE#         3047
  C:3C50H         LINE#         3048
  C:3C50H         LINE#         3049
  C:3C56H         LINE#         3050
  C:3C56H         LINE#         3051
  C:3C7CH         LINE#         3053
  C:3C7CH         LINE#         3054
  C:3C7FH         LINE#         3055
  C:3C84H         LINE#         3056
  C:3C84H         LINE#         3057
  C:3C86H         LINE#         3058
  C:3C89H         LINE#         3059
  C:3C8BH         LINE#         3060
  C:3C8DH         LINE#         3061
  C:3C8DH         LINE#         3062
  C:3C91H         LINE#         3063
  C:3C91H         LINE#         3064
  C:3C93H         LINE#         3065
  C:3C96H         LINE#         3066
  C:3C98H         LINE#         3067
  C:3C9AH         LINE#         3068
  C:3C9AH         LINE#         3069
  C:3C9EH         LINE#         3070
  C:3C9EH         LINE#         3071
  C:3CA0H         LINE#         3072
  C:3CA3H         LINE#         3073
  C:3CA6H         LINE#         3074
  C:3CA9H         LINE#         3075
  C:3CABH         LINE#         3076
  C:3CADH         LINE#         3077
  C:3CADH         LINE#         3078
BL51 BANKED LINKER/LOCATER V6.22                                                      01/05/2016  13:28:04  PAGE 98


  C:3CB1H         LINE#         3079
  C:3CB1H         LINE#         3080
  C:3CB3H         LINE#         3081
  C:3CB6H         LINE#         3082
  C:3CB8H         LINE#         3083
  C:3CBAH         LINE#         3084
  C:3CBCH         LINE#         3085
  C:3CC3H         LINE#         3086
  C:3CC3H         LINE#         3087
  C:3CC3H         LINE#         3088
  C:3CC3H         LINE#         3089
  C:3CC3H         LINE#         3090
  -------         ENDPROC       SELFCHECKPROC
  -------         PROC          ENTERRESET
  C:4581H         LINE#         3101
  C:4581H         LINE#         3102
  C:4581H         LINE#         3103
  C:458DH         LINE#         3104
  C:4598H         LINE#         3105
  C:4598H         LINE#         3106
  C:459CH         LINE#         3107
  C:459FH         LINE#         3108
  C:45A3H         LINE#         3109
  C:45A7H         LINE#         3110
  C:45A9H         LINE#         3111
  C:45ACH         LINE#         3112
  C:45AFH         LINE#         3114
  C:45B3H         LINE#         3115
  C:45B6H         LINE#         3116
  C:45BAH         LINE#         3117
  C:45BEH         LINE#         3118
  C:45C0H         LINE#         3119
  C:45C3H         LINE#         3120
  C:45C6H         LINE#         3122
  C:45CAH         LINE#         3123
  C:45CDH         LINE#         3124
  C:45D1H         LINE#         3125
  C:45D5H         LINE#         3126
  C:45D7H         LINE#         3127
  C:45DAH         LINE#         3128
  C:45DDH         LINE#         3130
  C:45E1H         LINE#         3131
  C:45E4H         LINE#         3132
  C:45E8H         LINE#         3133
  C:45ECH         LINE#         3134
  C:45EEH         LINE#         3135
  C:45F1H         LINE#         3136
  C:45F4H         LINE#         3138
  C:45F8H         LINE#         3139
  C:45FBH         LINE#         3140
  C:45FFH         LINE#         3141
  C:4603H         LINE#         3142
  C:4605H         LINE#         3143
  C:4608H         LINE#         3144
  C:460BH         LINE#         3146
  C:460EH         LINE#         3147
  C:4611H         LINE#         3148
BL51 BANKED LINKER/LOCATER V6.22                                                      01/05/2016  13:28:04  PAGE 99


  C:4613H         LINE#         3150
  C:4615H         LINE#         3151
  C:4619H         LINE#         3152
  C:461EH         LINE#         3153
  C:4622H         LINE#         3154
  C:462EH         LINE#         3155
  C:462EH         LINE#         3156
  C:4630H         LINE#         3157
  C:4637H         LINE#         3158
  C:4639H         LINE#         3159
  C:463CH         LINE#         3160
  C:463EH         LINE#         3161
  C:4642H         LINE#         3162
  C:4647H         LINE#         3163
  C:464CH         LINE#         3164
  -------         ENDPROC       ENTERRESET
  -------         PROC          ENTERSETUP
  C:5476H         LINE#         3175
  C:5476H         LINE#         3176
  C:5476H         LINE#         3177
  C:5479H         LINE#         3178
  C:547CH         LINE#         3179
  C:547EH         LINE#         3180
  C:5481H         LINE#         3181
  C:5483H         LINE#         3182
  C:5485H         LINE#         3183
  C:5487H         LINE#         3184
  C:5489H         LINE#         3186
  C:548CH         LINE#         3187
  C:548FH         LINE#         3188
  C:5492H         LINE#         3189
  C:5494H         LINE#         3190
  C:5496H         LINE#         3191
  C:5498H         LINE#         3192
  C:549AH         LINE#         3193
  C:549EH         LINE#         3194
  C:54A1H         LINE#         3195
  C:54A3H         LINE#         3196
  C:54A5H         LINE#         3197
  C:54A7H         LINE#         3198
  C:54ACH         LINE#         3199
  C:54AFH         LINE#         3200
  C:54B2H         LINE#         3201
  C:54B4H         LINE#         3202
  C:54B6H         LINE#         3203
  C:54B8H         LINE#         3205
  C:54BAH         LINE#         3206
  C:54BCH         LINE#         3207
  C:54BEH         LINE#         3208
  C:54C0H         LINE#         3209
  C:54C2H         LINE#         3210
  C:54C5H         LINE#         3211
  C:54C9H         LINE#         3212
  C:54CEH         LINE#         3213
  C:54D0H         LINE#         3214
  C:54D2H         LINE#         3215
  C:54D4H         LINE#         3216
BL51 BANKED LINKER/LOCATER V6.22                                                      01/05/2016  13:28:04  PAGE 100


  -------         ENDPROC       ENTERSETUP
  -------         PROC          ENTERDEFAULT
  C:5530H         LINE#         3226
  C:5530H         LINE#         3227
  C:5530H         LINE#         3228
  C:5533H         LINE#         3229
  C:5539H         LINE#         3230
  C:5541H         LINE#         3231
  C:5546H         LINE#         3232
  C:5546H         LINE#         3233
  C:554CH         LINE#         3234
  C:554CH         LINE#         3235
  C:554FH         LINE#         3236
  C:5551H         LINE#         3238
  C:5551H         LINE#         3239
  C:5558H         LINE#         3240
  C:5558H         LINE#         3241
  C:555AH         LINE#         3242
  C:555CH         LINE#         3244
  C:555CH         LINE#         3245
  C:555EH         LINE#         3246
  C:555EH         LINE#         3247
  C:5565H         LINE#         3248
  C:5565H         LINE#         3249
  C:556AH         LINE#         3250
  C:556FH         LINE#         3251
  C:5572H         LINE#         3252
  C:5577H         LINE#         3253
  C:557BH         LINE#         3254
  C:557EH         LINE#         3255
  C:5581H         LINE#         3256
  C:5583H         LINE#         3257
  C:5583H         LINE#         3258
  C:5583H         LINE#         3259
  -------         ENDPROC       ENTERDEFAULT
  -------         PROC          ENTERRUN
  -------         DO            
  D:0007H         SYMBOL        i
  D:0006H         SYMBOL        j
  -------         ENDDO         
  C:38DAH         LINE#         3270
  C:38DAH         LINE#         3271
  C:38DAH         LINE#         3272
  C:38DDH         LINE#         3274
  C:38E7H         LINE#         3275
  C:38E7H         LINE#         3276
  C:38ECH         LINE#         3277
  C:38F3H         LINE#         3278
  C:38FAH         LINE#         3279
  C:3901H         LINE#         3280
  C:3908H         LINE#         3282
  C:390EH         LINE#         3283
  C:390EH         LINE#         3284
  C:3949H         LINE#         3286
  C:3949H         LINE#         3287
  C:394BH         LINE#         3288
  C:3958H         LINE#         3289
BL51 BANKED LINKER/LOCATER V6.22                                                      01/05/2016  13:28:04  PAGE 101


  C:3965H         LINE#         3290
  C:3972H         LINE#         3291
  C:3977H         LINE#         3292
  C:3977H         LINE#         3293
  C:3977H         LINE#         3294
  C:3979H         LINE#         3296
  C:3979H         LINE#         3297
  C:3987H         LINE#         3298
  C:3987H         LINE#         3299
  C:3989H         LINE#         3300
  C:3996H         LINE#         3301
  C:39A3H         LINE#         3302
  C:39B0H         LINE#         3303
  C:39B5H         LINE#         3304
  C:39B5H         LINE#         3305
  C:39C2H         LINE#         3306
  C:39C2H         LINE#         3307
  C:39C8H         LINE#         3308
  C:39CCH         LINE#         3309
  C:39CCH         LINE#         3310
  C:39CCH         LINE#         3311
  C:39CEH         LINE#         3313
  C:39CEH         LINE#         3314
  C:39DDH         LINE#         3315
  C:39DDH         LINE#         3316
  C:39DFH         LINE#         3317
  C:39E5H         LINE#         3318
  C:39E8H         LINE#         3319
  C:39E8H         LINE#         3320
  C:39EEH         LINE#         3321
  C:39EEH         LINE#         3322
  C:39EEH         LINE#         3323
  C:39EEH         LINE#         3325
  C:39F1H         LINE#         3326
  C:39F1H         LINE#         3327
  C:39F5H         LINE#         3328
  C:39FBH         LINE#         3329
  C:39FFH         LINE#         3330
  C:3A0BH         LINE#         3331
  C:3A0BH         LINE#         3333
  C:3A0EH         LINE#         3334
  C:3A12H         LINE#         3335
  C:3A17H         LINE#         3336
  C:3A20H         LINE#         3337
  C:3A27H         LINE#         3338
  C:3A29H         LINE#         3339
  C:3A2BH         LINE#         3340
  C:3A2DH         LINE#         3341
  C:3A2FH         LINE#         3342
  C:3A33H         LINE#         3343
  C:3A35H         LINE#         3344
  C:3A3BH         LINE#         3345
  C:3A40H         LINE#         3346
  -------         ENDPROC       ENTERRUN
  -------         PROC          ENTERWARM
  C:51F2H         LINE#         3357
  C:51F2H         LINE#         3358
BL51 BANKED LINKER/LOCATER V6.22                                                      01/05/2016  13:28:04  PAGE 102


  C:51F2H         LINE#         3359
  C:51F5H         LINE#         3360
  C:51F8H         LINE#         3361
  C:51FAH         LINE#         3362
  C:51FDH         LINE#         3363
  C:51FFH         LINE#         3364
  C:5201H         LINE#         3365
  C:5203H         LINE#         3366
  C:5205H         LINE#         3368
  C:5207H         LINE#         3369
  C:5209H         LINE#         3370
  C:520BH         LINE#         3371
  C:520DH         LINE#         3372
  C:520FH         LINE#         3373
  C:5211H         LINE#         3374
  C:5213H         LINE#         3375
  C:5215H         LINE#         3376
  C:5217H         LINE#         3377
  C:5219H         LINE#         3378
  C:521DH         LINE#         3379
  C:5223H         LINE#         3380
  C:5229H         LINE#         3381
  C:5234H         LINE#         3382
  C:5243H         LINE#         3383
  C:524DH         LINE#         3384
  C:5252H         LINE#         3385
  C:5257H         LINE#         3386
  C:525CH         LINE#         3387
  C:5261H         LINE#         3388
  -------         ENDPROC       ENTERWARM
  -------         PROC          ENTERPOWERDOWN
  C:5C83H         LINE#         3399
  C:5C83H         LINE#         3400
  C:5C83H         LINE#         3401
  C:5C86H         LINE#         3402
  C:5C89H         LINE#         3403
  C:5C8BH         LINE#         3404
  C:5C8EH         LINE#         3405
  C:5C90H         LINE#         3406
  C:5C92H         LINE#         3407
  C:5C94H         LINE#         3408
  C:5C96H         LINE#         3409
  C:5C99H         LINE#         3410
  -------         ENDPROC       ENTERPOWERDOWN
  -------         PROC          FAULTCHECKPROC
  -------         DO            
  D:002BH         SYMBOL        u8BotDegree
  D:002CH         SYMBOL        u8TopDegree
  D:002DH         SYMBOL        adBotData
  D:002FH         SYMBOL        adTopData
  -------         ENDDO         
  C:41F1H         LINE#         3422
  C:41F1H         LINE#         3423
  C:41F1H         LINE#         3424
  C:41F8H         LINE#         3425
  C:41FFH         LINE#         3426
  C:4208H         LINE#         3427
BL51 BANKED LINKER/LOCATER V6.22                                                      01/05/2016  13:28:04  PAGE 103


  C:4211H         LINE#         3429
  C:4214H         LINE#         3430
  C:4214H         LINE#         3431
  C:4219H         LINE#         3432
  C:4219H         LINE#         3433
  C:421CH         LINE#         3434
  C:421CH         LINE#         3435
  C:4223H         LINE#         3436
  C:4223H         LINE#         3437
  C:4225H         LINE#         3438
  C:422CH         LINE#         3439
  C:422CH         LINE#         3440
  C:422CH         LINE#         3441
  C:422CH         LINE#         3442
  C:422CH         LINE#         3444
  C:4235H         LINE#         3445
  C:4235H         LINE#         3446
  C:4238H         LINE#         3447
  C:4238H         LINE#         3448
  C:423FH         LINE#         3449
  C:423FH         LINE#         3450
  C:4242H         LINE#         3451
  C:4247H         LINE#         3452
  C:4247H         LINE#         3453
  C:425FH         LINE#         3454
  C:425FH         LINE#         3455
  C:4261H         LINE#         3456
  C:4261H         LINE#         3457
  C:4266H         LINE#         3458
  C:4266H         LINE#         3459
  C:4268H         LINE#         3460
  C:4268H         LINE#         3461
  C:4268H         LINE#         3462
  C:426AH         LINE#         3464
  C:426AH         LINE#         3465
  C:426EH         LINE#         3466
  C:426EH         LINE#         3467
  C:426EH         LINE#         3468
  C:426EH         LINE#         3470
  C:4283H         LINE#         3471
  C:4283H         LINE#         3472
  C:429DH         LINE#         3473
  C:429FH         LINE#         3474
  C:42B9H         LINE#         3475
  C:42BBH         LINE#         3476
  C:42BBH         LINE#         3478
  C:42CCH         LINE#         3479
  C:42CCH         LINE#         3480
  C:42D0H         LINE#         3481
  C:42D0H         LINE#         3482
  C:42D3H         LINE#         3483
  C:42D6H         LINE#         3484
  C:42DDH         LINE#         3485
  C:42DFH         LINE#         3486
  C:42E2H         LINE#         3487
  C:42E4H         LINE#         3488
  C:42E6H         LINE#         3489
BL51 BANKED LINKER/LOCATER V6.22                                                      01/05/2016  13:28:04  PAGE 104


  C:42E6H         LINE#         3490
  C:42E6H         LINE#         3491
  -------         ENDPROC       FAULTCHECKPROC
  -------         PROC          AUTOTESTACTIVATE
  C:58A7H         LINE#         3503
  C:58A7H         LINE#         3504
  C:58A7H         LINE#         3505
  C:58B3H         LINE#         3506
  C:58B3H         LINE#         3507
  C:58BAH         LINE#         3508
  C:58C2H         LINE#         3509
  C:58C2H         LINE#         3510
  C:58CDH         LINE#         3511
  C:58CDH         LINE#         3512
  C:58D3H         LINE#         3513
  C:58D3H         LINE#         3514
  C:58D6H         LINE#         3515
  C:58DAH         LINE#         3516
  C:58E1H         LINE#         3517
  C:58E1H         LINE#         3518
  C:58E1H         LINE#         3519
  C:58E1H         LINE#         3520
  C:58E1H         LINE#         3521
  -------         ENDPROC       AUTOTESTACTIVATE
  -------         ENDMOD        SYSTEM

  -------         MODULE        SCRIPT
  C:0000H         SYMBOL        _ICE_DUMMY_
  I:00C1H         PUBLIC        m_u8MinOnTime_Set
  I:00C2H         PUBLIC        m_u8TargetTemp
  I:00C3H         PUBLIC        m_u8OffsetTemp
  D:0080H         PUBLIC        P0
  D:0090H         PUBLIC        P1
  D:00A0H         PUBLIC        P2
  C:1032H         PUBLIC        m_u8aReheat_80
  D:00B0H         PUBLIC        P3
  D:00C0H         PUBLIC        P4
  D:0080H         PUBLIC        P5
  C:0FA2H         PUBLIC        m_u8aSoup
  C:5089H         PUBLIC        GetPowerByDT
  C:0BF3H         PUBLIC        m_u8aBuckWheat_Nutritious_Soft
  C:2C8EH         PUBLIC        _OtherCmds
  C:4A1FH         PUBLIC        _Heat_Ctr
  C:3F03H         PUBLIC        ScriptProc
  C:5D73H         PUBLIC        GetScriptStage
  C:0E4BH         PUBLIC        m_u8aBrownRice_Lentiles
  C:0A75H         PUBLIC        m_u8aWhiteRice_Nutritious_Soft
  C:0AC0H         PUBLIC        m_u8aWhiteRice_Hard_Normal
  D:0044H         PUBLIC        m_u8AddOffParam
  C:0B06H         PUBLIC        m_u8aBrownRice_Nutritious
  C:0E05H         PUBLIC        m_u8aBabyPorridge
  C:0DB7H         PUBLIC        m_u8aBeans_Nutritious_stage2
  I:00C4H         PUBLIC        m_u8MaxOnTime_set
  I:00C5H         PUBLIC        m_u8PwrCycle
  C:1053H         PUBLIC        m_u8aReheat_100
  C:5B4DH         PUBLIC        ResetCurScript
  C:0F8CH         PUBLIC        m_u8aSlowcook
BL51 BANKED LINKER/LOCATER V6.22                                                      01/05/2016  13:28:04  PAGE 105


  C:1074H         PUBLIC        m_u8aTemp_30
  D:0045H         PUBLIC        m_u8AddOnParam
  C:4963H         PUBLIC        _ByTime_ChgStage
  C:108AH         PUBLIC        m_u8aTemp_40
  C:0FD8H         PUBLIC        m_u8aCreamcheese
  C:10B6H         PUBLIC        m_u8aTemp_50
  C:0BADH         PUBLIC        m_u8aBrownRice_Normal_Soft
  C:5CECH         PUBLIC        _ChangeScriptStage
  C:10E2H         PUBLIC        m_u8aTemp_60
  C:0D4DH         PUBLIC        m_u8aLentils_Soft
  C:110EH         PUBLIC        m_u8aTemp_70
  C:113AH         PUBLIC        m_u8aTemp_80
  C:1166H         PUBLIC        m_u8aTemp_90
  C:10A0H         PUBLIC        m_u8aTemp_45
  C:10CCH         PUBLIC        m_u8aTemp_55
  C:52D6H         PUBLIC        _ByTemp_ChgStage
  C:10F8H         PUBLIC        m_u8aTemp_65
  C:0DDEH         PUBLIC        m_u8aBeans_Normal_stage2
  C:1124H         PUBLIC        m_u8aTemp_75
  C:1150H         PUBLIC        m_u8aTemp_85
  C:0C40H         PUBLIC        m_u8aBuckWheat_Hard
  C:117CH         PUBLIC        m_u8aTemp_95
  I:00C6H         PUBLIC        g_u16VarParam
  D:0046H         PUBLIC        m_u16CookTime
  C:0D07H         PUBLIC        m_u8aLentils_Nutritious_Hard
  C:1192H         PUBLIC        m_u8aTemp_Water_100
  C:0B67H         PUBLIC        m_u8aBrownRice_Hard
  C:2218H         PUBLIC        _SetCurScript
  C:0FF9H         PUBLIC        m_u8aYoghurt
  C:0ED7H         PUBLIC        m_u8aRisotto
  I:00D6H         PUBLIC        m_u8EstimateTemp
  C:0FB8H         PUBLIC        m_u8aPasta
  I:00D7H         PUBLIC        m_u8OnTimeDec
  C:0F69H         PUBLIC        m_u8aSteam
  D:0048H         PUBLIC        m_u8pBaseScript
  D:004AH         PUBLIC        m_u8pScript
  I:00D8H         PUBLIC        m_u8OnTimeInc
  C:1218H         PUBLIC        m_u8aTemp_110
  C:1288H         PUBLIC        m_u8aTemp_120
  C:12F8H         PUBLIC        m_u8aTemp_130
  C:1368H         PUBLIC        m_u8aTemp_140
  C:13D8H         PUBLIC        m_u8aTemp_150
  C:11E0H         PUBLIC        m_u8aTemp_105
  D:004CH         PUBLIC        m_u8ScriptStage
  C:1448H         PUBLIC        m_u8aTemp_160
  C:1250H         PUBLIC        m_u8aTemp_115
  C:11A8H         PUBLIC        m_u8aTemp_Oil_100
  C:2A5CH         PUBLIC        _SetBotTemp
  C:12C0H         PUBLIC        m_u8aTemp_125
  C:0D93H         PUBLIC        m_u8aBeans_Nutritious_Normal_stage1
  C:1330H         PUBLIC        m_u8aTemp_135
  C:13A0H         PUBLIC        m_u8aTemp_145
  C:1410H         PUBLIC        m_u8aTemp_155
  C:100FH         PUBLIC        m_u8aJam
  C:0E9BH         PUBLIC        m_u8aChickPeas_stage1
  C:0EBFH         PUBLIC        m_u8aChickPeas_stage2
  D:004DH         PUBLIC        m_u16IntCookTime
BL51 BANKED LINKER/LOCATER V6.22                                                      01/05/2016  13:28:04  PAGE 106


  C:0C8DH         PUBLIC        m_u8aQuinoa_Nutritious
  C:0CCAH         PUBLIC        m_u8aQuinoa_Hard_Normal
  -------         PROC          GETSCRIPTSTAGE
  C:5D73H         LINE#         1308
  C:5D73H         LINE#         1309
  C:5D73H         LINE#         1310
  C:5D75H         LINE#         1311
  -------         ENDPROC       GETSCRIPTSTAGE
  -------         PROC          RESETCURSCRIPT
  C:5B4DH         LINE#         1322
  C:5B4DH         LINE#         1323
  C:5B4DH         LINE#         1324
  C:5B50H         LINE#         1325
  C:5B54H         LINE#         1326
  C:5B56H         LINE#         1327
  C:5B58H         LINE#         1330
  C:5B5AH         LINE#         1334
  C:5B5EH         LINE#         1335
  C:5B62H         LINE#         1336
  C:5B66H         LINE#         1337
  C:5B68H         LINE#         1338
  C:5B6AH         LINE#         1339
  C:5B6CH         LINE#         1340
  C:5B6EH         LINE#         1341
  C:5B70H         LINE#         1342
  -------         ENDPROC       RESETCURSCRIPT
  -------         PROC          _SETCURSCRIPT
  D:0007H         SYMBOL        u8ID
  D:0005H         SYMBOL        u8texture
  C:2218H         LINE#         1352
  C:2218H         LINE#         1353
  C:2218H         LINE#         1354
  C:2275H         LINE#         1355
  C:2275H         LINE#         1357
  C:2275H         LINE#         1358
  C:227DH         LINE#         1359
  C:227DH         LINE#         1360
  C:2283H         LINE#         1361
  C:2283H         LINE#         1362
  C:2290H         LINE#         1363
  C:2290H         LINE#         1364
  C:2296H         LINE#         1365
  C:2296H         LINE#         1366
  C:2299H         LINE#         1367
  C:2299H         LINE#         1368
  C:22A2H         LINE#         1369
  C:22ABH         LINE#         1370
  C:22B8H         LINE#         1371
  C:22B8H         LINE#         1372
  C:22BEH         LINE#         1373
  C:22BEH         LINE#         1374
  C:22C1H         LINE#         1375
  C:22C1H         LINE#         1376
  C:22C9H         LINE#         1377
  C:22C9H         LINE#         1378
  C:22CFH         LINE#         1379
  C:22CFH         LINE#         1380
BL51 BANKED LINKER/LOCATER V6.22                                                      01/05/2016  13:28:04  PAGE 107


  C:22DDH         LINE#         1381
  C:22E0H         LINE#         1382
  C:22E0H         LINE#         1383
  C:22E9H         LINE#         1384
  C:22F6H         LINE#         1385
  C:22F6H         LINE#         1386
  C:22FCH         LINE#         1387
  C:22FCH         LINE#         1388
  C:22FFH         LINE#         1389
  C:22FFH         LINE#         1390
  C:2307H         LINE#         1391
  C:2307H         LINE#         1392
  C:230DH         LINE#         1393
  C:230DH         LINE#         1394
  C:231BH         LINE#         1395
  C:231EH         LINE#         1396
  C:231EH         LINE#         1397
  C:2321H         LINE#         1398
  C:2321H         LINE#         1399
  C:2327H         LINE#         1400
  C:232AH         LINE#         1402
  C:232AH         LINE#         1403
  C:2333H         LINE#         1404
  C:2341H         LINE#         1405
  C:2341H         LINE#         1406
  C:2344H         LINE#         1407
  C:2344H         LINE#         1408
  C:234AH         LINE#         1409
  C:234DH         LINE#         1420
  C:234DH         LINE#         1421
  C:2353H         LINE#         1422
  C:2356H         LINE#         1423
  C:2356H         LINE#         1424
  C:2359H         LINE#         1425
  C:2359H         LINE#         1426
  C:235FH         LINE#         1427
  C:2362H         LINE#         1429
  C:2362H         LINE#         1430
  C:2368H         LINE#         1431
  C:2368H         LINE#         1432
  C:236BH         LINE#         1435
  C:236BH         LINE#         1436
  C:2371H         LINE#         1437
  C:2374H         LINE#         1438
  C:2374H         LINE#         1439
  C:237AH         LINE#         1440
  C:237DH         LINE#         1441
  C:237DH         LINE#         1442
  C:2388H         LINE#         1443
  C:2393H         LINE#         1444
  C:23A2H         LINE#         1445
  C:23A5H         LINE#         1446
  C:23A5H         LINE#         1447
  C:23A5H         LINE#         1448
  C:23A5H         LINE#         1449
  C:23A5H         LINE#         1450
  C:23B0H         LINE#         1451
BL51 BANKED LINKER/LOCATER V6.22                                                      01/05/2016  13:28:04  PAGE 108


  C:23BBH         LINE#         1452
  C:23C6H         LINE#         1453
  C:23D1H         LINE#         1454
  C:23DCH         LINE#         1455
  C:23E7H         LINE#         1456
  C:23F2H         LINE#         1457
  C:23FDH         LINE#         1458
  C:2408H         LINE#         1459
  C:2413H         LINE#         1460
  C:241EH         LINE#         1461
  C:2429H         LINE#         1462
  C:242EH         LINE#         1463
  C:242EH         LINE#         1464
  C:2436H         LINE#         1465
  C:2436H         LINE#         1466
  C:243CH         LINE#         1467
  C:243EH         LINE#         1469
  C:243EH         LINE#         1470
  C:2444H         LINE#         1471
  C:2444H         LINE#         1472
  C:2444H         LINE#         1473
  C:244FH         LINE#         1474
  C:245AH         LINE#         1475
  C:2465H         LINE#         1476
  C:2470H         LINE#         1477
  C:247BH         LINE#         1478
  C:2486H         LINE#         1479
  C:2491H         LINE#         1480
  C:249CH         LINE#         1481
  C:24A7H         LINE#         1482
  C:24B2H         LINE#         1483
  C:24BDH         LINE#         1484
  C:24C9H         LINE#         1485
  C:24CBH         LINE#         1486
  C:24CBH         LINE#         1487
  C:24D1H         LINE#         1488
  C:24D3H         LINE#         1489
  C:24D3H         LINE#         1490
  C:24D9H         LINE#         1491
  C:24DBH         LINE#         1492
  C:24DBH         LINE#         1493
  C:24E6H         LINE#         1494
  C:24F2H         LINE#         1495
  C:24F4H         LINE#         1496
  C:24F4H         LINE#         1497
  C:24FAH         LINE#         1498
  C:24FCH         LINE#         1499
  C:24FCH         LINE#         1500
  C:2502H         LINE#         1501
  C:2504H         LINE#         1502
  C:2504H         LINE#         1503
  C:250AH         LINE#         1504
  C:250CH         LINE#         1505
  C:250CH         LINE#         1506
  C:2517H         LINE#         1507
  C:2522H         LINE#         1508
  C:2522H         LINE#         1509
BL51 BANKED LINKER/LOCATER V6.22                                                      01/05/2016  13:28:04  PAGE 109


  C:2522H         LINE#         1510
  C:2522H         LINE#         1511
  C:2522H         LINE#         1512
  -------         ENDPROC       _SETCURSCRIPT
  -------         PROC          SCRIPTPROC
  -------         DO            
  D:002BH         SYMBOL        u8Tmp
  -------         ENDDO         
  C:3F03H         LINE#         1523
  C:3F03H         LINE#         1524
  C:3F03H         LINE#         1527
  C:3F0AH         LINE#         1529
  C:3F10H         LINE#         1530
  C:3F10H         LINE#         1531
  C:3F16H         LINE#         1532
  C:3F16H         LINE#         1533
  C:3F2CH         LINE#         1534
  C:3F2CH         LINE#         1536
  C:3F37H         LINE#         1538
  C:3F40H         LINE#         1539
  C:3F40H         LINE#         1540
  C:3F8BH         LINE#         1541
  C:3F8BH         LINE#         1544
  C:3F8BH         LINE#         1545
  C:3F92H         LINE#         1546
  C:3F94H         LINE#         1547
  C:3F96H         LINE#         1551
  C:3F96H         LINE#         1552
  C:3F96H         LINE#         1553
  C:3F96H         LINE#         1554
  C:3F96H         LINE#         1555
  C:3F9FH         LINE#         1556
  C:3FA1H         LINE#         1557
  C:3FA1H         LINE#         1558
  C:3FA3H         LINE#         1562
  C:3FA3H         LINE#         1563
  C:3FA3H         LINE#         1564
  C:3FA3H         LINE#         1565
  C:3FA3H         LINE#         1566
  C:3FA3H         LINE#         1567
  C:3FACH         LINE#         1568
  C:3FB7H         LINE#         1569
  C:3FB7H         LINE#         1570
  C:3FB9H         LINE#         1582
  C:3FB9H         LINE#         1583
  C:3FB9H         LINE#         1584
  C:3FC0H         LINE#         1585
  C:3FCBH         LINE#         1586
  C:3FCEH         LINE#         1590
  C:3FCEH         LINE#         1591
  C:3FD7H         LINE#         1592
  C:3FE0H         LINE#         1593
  C:3FEBH         LINE#         1594
  C:3FF0H         LINE#         1595
  C:3FF3H         LINE#         1597
  C:3FF3H         LINE#         1598
  C:3FF8H         LINE#         1599
BL51 BANKED LINKER/LOCATER V6.22                                                      01/05/2016  13:28:04  PAGE 110


  C:3FFBH         LINE#         1601
  C:3FFBH         LINE#         1602
  C:3FFEH         LINE#         1603
  C:4001H         LINE#         1604
  C:4001H         LINE#         1605
  C:4001H         LINE#         1606
  C:4001H         LINE#         1607
  -------         ENDPROC       SCRIPTPROC
  -------         PROC          _CHANGESCRIPTSTAGE
  D:0007H         SYMBOL        u8Stage
  C:5CECH         LINE#         1617
  C:5CECH         LINE#         1618
  C:5CECH         LINE#         1619
  C:5CF0H         LINE#         1620
  C:5CF5H         LINE#         1621
  C:5CFEH         LINE#         1622
  -------         ENDPROC       _CHANGESCRIPTSTAGE
  -------         PROC          _SETBOTTEMP
  D:002CH         SYMBOL        pScript
  -------         DO            
  D:0007H         SYMBOL        u8BotDegree
  -------         ENDDO         
  C:2A5CH         LINE#         1632
  C:2A60H         LINE#         1633
  C:2A60H         LINE#         1634
  C:2A65H         LINE#         1635
  C:2A70H         LINE#         1636
  C:2A75H         LINE#         1637
  C:2A7AH         LINE#         1638
  C:2A7FH         LINE#         1640
  C:2A89H         LINE#         1641
  C:2A8BH         LINE#         1645
  C:2A95H         LINE#         1646
  C:2A95H         LINE#         1647
  C:2A9AH         LINE#         1648
  C:2A9DH         LINE#         1649
  C:2A9DH         LINE#         1650
  C:2AA7H         LINE#         1651
  C:2AA7H         LINE#         1652
  C:2AACH         LINE#         1653
  C:2AAFH         LINE#         1654
  C:2AAFH         LINE#         1657
  C:2AB9H         LINE#         1658
  C:2AB9H         LINE#         1659
  C:2ABEH         LINE#         1660
  C:2ABEH         LINE#         1661
  C:2AC1H         LINE#         1662
  C:2AC1H         LINE#         1664
  C:2AC6H         LINE#         1665
  C:2AC6H         LINE#         1666
  C:2ACCH         LINE#         1667
  C:2AD4H         LINE#         1668
  C:2AD4H         LINE#         1670
  C:2ADDH         LINE#         1671
  C:2ADDH         LINE#         1672
  C:2AE2H         LINE#         1673
  C:2AE2H         LINE#         1674
BL51 BANKED LINKER/LOCATER V6.22                                                      01/05/2016  13:28:04  PAGE 111


  C:2AE8H         LINE#         1675
  C:2AE8H         LINE#         1676
  C:2AEEH         LINE#         1677
  C:2AF6H         LINE#         1678
  C:2AF8H         LINE#         1680
  C:2AF8H         LINE#         1681
  C:2AFBH         LINE#         1682
  C:2AFBH         LINE#         1683
  C:2AFBH         LINE#         1685
  C:2B00H         LINE#         1686
  C:2B00H         LINE#         1687
  C:2B06H         LINE#         1688
  C:2B06H         LINE#         1689
  C:2B0CH         LINE#         1690
  C:2B14H         LINE#         1691
  C:2B16H         LINE#         1693
  C:2B16H         LINE#         1694
  C:2B19H         LINE#         1695
  C:2B19H         LINE#         1696
  C:2B19H         LINE#         1698
  C:2B1EH         LINE#         1699
  C:2B1EH         LINE#         1700
  C:2B24H         LINE#         1701
  C:2B24H         LINE#         1702
  C:2B2AH         LINE#         1703
  C:2B32H         LINE#         1704
  C:2B34H         LINE#         1706
  C:2B34H         LINE#         1707
  C:2B37H         LINE#         1708
  C:2B37H         LINE#         1709
  C:2B37H         LINE#         1711
  C:2B3CH         LINE#         1712
  C:2B3CH         LINE#         1713
  C:2B42H         LINE#         1714
  C:2B42H         LINE#         1715
  C:2B48H         LINE#         1716
  C:2B50H         LINE#         1717
  C:2B52H         LINE#         1719
  C:2B52H         LINE#         1720
  C:2B55H         LINE#         1721
  C:2B55H         LINE#         1722
  C:2B55H         LINE#         1724
  C:2B5AH         LINE#         1725
  C:2B5AH         LINE#         1726
  C:2B60H         LINE#         1727
  C:2B60H         LINE#         1728
  C:2B66H         LINE#         1729
  C:2B6EH         LINE#         1730
  C:2B70H         LINE#         1732
  C:2B70H         LINE#         1733
  C:2B73H         LINE#         1734
  C:2B73H         LINE#         1735
  C:2B73H         LINE#         1737
  C:2B78H         LINE#         1738
  C:2B78H         LINE#         1739
  C:2B7EH         LINE#         1740
  C:2B7EH         LINE#         1741
BL51 BANKED LINKER/LOCATER V6.22                                                      01/05/2016  13:28:04  PAGE 112


  C:2B84H         LINE#         1742
  C:2B8CH         LINE#         1743
  C:2B8EH         LINE#         1745
  C:2B8EH         LINE#         1746
  C:2B91H         LINE#         1747
  C:2B91H         LINE#         1748
  C:2B91H         LINE#         1750
  C:2B96H         LINE#         1751
  C:2B96H         LINE#         1752
  C:2B9CH         LINE#         1753
  C:2B9CH         LINE#         1754
  C:2BA2H         LINE#         1755
  C:2BAAH         LINE#         1756
  C:2BACH         LINE#         1758
  C:2BACH         LINE#         1759
  C:2BAFH         LINE#         1760
  C:2BAFH         LINE#         1761
  C:2BAFH         LINE#         1763
  C:2BB4H         LINE#         1764
  C:2BB4H         LINE#         1765
  C:2BBAH         LINE#         1766
  C:2BBAH         LINE#         1767
  C:2BC0H         LINE#         1768
  C:2BC8H         LINE#         1769
  C:2BCAH         LINE#         1771
  C:2BCAH         LINE#         1772
  C:2BCDH         LINE#         1773
  C:2BCDH         LINE#         1774
  C:2BCDH         LINE#         1776
  C:2BD2H         LINE#         1777
  C:2BD2H         LINE#         1778
  C:2BD8H         LINE#         1779
  C:2BD8H         LINE#         1780
  C:2BDEH         LINE#         1781
  C:2BE6H         LINE#         1782
  C:2BE8H         LINE#         1784
  C:2BE8H         LINE#         1785
  C:2BEBH         LINE#         1786
  C:2BEBH         LINE#         1787
  C:2BEBH         LINE#         1789
  C:2BF0H         LINE#         1790
  C:2BF0H         LINE#         1791
  C:2BF6H         LINE#         1792
  C:2BF6H         LINE#         1793
  C:2BFCH         LINE#         1794
  C:2C04H         LINE#         1795
  C:2C06H         LINE#         1797
  C:2C06H         LINE#         1798
  C:2C09H         LINE#         1799
  C:2C09H         LINE#         1800
  C:2C09H         LINE#         1802
  C:2C0EH         LINE#         1803
  C:2C0EH         LINE#         1804
  C:2C14H         LINE#         1805
  C:2C14H         LINE#         1806
  C:2C1AH         LINE#         1807
  C:2C22H         LINE#         1808
BL51 BANKED LINKER/LOCATER V6.22                                                      01/05/2016  13:28:04  PAGE 113


  C:2C24H         LINE#         1810
  C:2C24H         LINE#         1811
  C:2C27H         LINE#         1812
  C:2C27H         LINE#         1813
  C:2C27H         LINE#         1815
  C:2C2CH         LINE#         1816
  C:2C2CH         LINE#         1817
  C:2C32H         LINE#         1818
  C:2C32H         LINE#         1819
  C:2C38H         LINE#         1820
  C:2C40H         LINE#         1821
  C:2C42H         LINE#         1823
  C:2C42H         LINE#         1824
  C:2C45H         LINE#         1825
  C:2C45H         LINE#         1826
  C:2C45H         LINE#         1828
  C:2C4AH         LINE#         1829
  C:2C4AH         LINE#         1830
  C:2C50H         LINE#         1831
  C:2C50H         LINE#         1832
  C:2C56H         LINE#         1833
  C:2C5EH         LINE#         1834
  C:2C60H         LINE#         1836
  C:2C60H         LINE#         1837
  C:2C63H         LINE#         1838
  C:2C63H         LINE#         1839
  C:2C63H         LINE#         1840
  C:2C63H         LINE#         1841
  C:2C63H         LINE#         1843
  C:2C6AH         LINE#         1844
  C:2C6AH         LINE#         1845
  C:2C6FH         LINE#         1846
  C:2C6FH         LINE#         1847
  C:2C72H         LINE#         1848
  C:2C76H         LINE#         1849
  C:2C76H         LINE#         1850
  C:2C79H         LINE#         1851
  C:2C79H         LINE#         1852
  C:2C79H         LINE#         1854
  C:2C7EH         LINE#         1855
  C:2C7EH         LINE#         1856
  C:2C81H         LINE#         1857
  C:2C81H         LINE#         1892
  C:2C86H         LINE#         1893
  C:2C86H         LINE#         1894
  C:2C8DH         LINE#         1895
  C:2C8DH         LINE#         1896
  C:2C8DH         LINE#         1897
  -------         ENDPROC       _SETBOTTEMP
  -------         PROC          _BYTEMP_CHGSTAGE
  D:002CH         SYMBOL        pScript
  -------         DO            
  D:002EH         SYMBOL        i
  D:002FH         SYMBOL        u8ChReq
  D:0030H         SYMBOL        u8BotDegree
  D:0007H         SYMBOL        u8TopDegree
  -------         ENDDO         
BL51 BANKED LINKER/LOCATER V6.22                                                      01/05/2016  13:28:04  PAGE 114


  C:52D6H         LINE#         1907
  C:52DAH         LINE#         1908
  C:52DAH         LINE#         1909
  C:52E3H         LINE#         1910
  C:52E6H         LINE#         1911
  C:52ECH         LINE#         1912
  C:52F1H         LINE#         1915
  C:5307H         LINE#         1916
  C:5307H         LINE#         1917
  C:5307H         LINE#         1918
  C:530EH         LINE#         1919
  C:530EH         LINE#         1920
  C:530EH         LINE#         1921
  C:530EH         LINE#         1922
  C:5310H         LINE#         1923
  C:5310H         LINE#         1924
  C:5317H         LINE#         1925
  C:5317H         LINE#         1926
  C:5317H         LINE#         1927
  C:5317H         LINE#         1928
  C:5319H         LINE#         1929
  C:5319H         LINE#         1930
  C:531FH         LINE#         1931
  C:531FH         LINE#         1932
  C:5322H         LINE#         1933
  C:5322H         LINE#         1934
  C:5328H         LINE#         1935
  C:5328H         LINE#         1936
  C:5328H         LINE#         1937
  C:5328H         LINE#         1938
  C:532AH         LINE#         1939
  C:532AH         LINE#         1940
  C:5330H         LINE#         1941
  C:5330H         LINE#         1942
  C:5333H         LINE#         1943
  C:5333H         LINE#         1944
  C:5333H         LINE#         1945
  C:5333H         LINE#         1946
  C:5333H         LINE#         1947
  C:5333H         LINE#         1949
  C:5337H         LINE#         1950
  C:5337H         LINE#         1951
  C:5342H         LINE#         1952
  C:5342H         LINE#         1953
  C:5344H         LINE#         1954
  -------         ENDPROC       _BYTEMP_CHGSTAGE
  -------         PROC          _BYTIME_CHGSTAGE
  D:002CH         SYMBOL        pScript
  -------         DO            
  D:0006H         SYMBOL        u16Time
  -------         ENDDO         
  C:4963H         LINE#         1964
  C:4967H         LINE#         1965
  C:4967H         LINE#         1966
  C:497AH         LINE#         1968
  C:4980H         LINE#         1969
  C:4980H         LINE#         1970
BL51 BANKED LINKER/LOCATER V6.22                                                      01/05/2016  13:28:04  PAGE 115


  C:4985H         LINE#         1971
  C:4988H         LINE#         1972
  C:4988H         LINE#         1978
  C:4999H         LINE#         1979
  C:4999H         LINE#         1980
  C:49A2H         LINE#         1981
  C:49A2H         LINE#         1982
  C:49A8H         LINE#         1983
  C:49A8H         LINE#         1984
  C:49AFH         LINE#         1985
  C:49AFH         LINE#         1986
  C:49B5H         LINE#         1987
  C:49B5H         LINE#         1988
  C:49BCH         LINE#         1989
  C:49BCH         LINE#         1990
  C:49C2H         LINE#         1991
  C:49C2H         LINE#         1992
  C:49C9H         LINE#         1993
  C:49C9H         LINE#         1994
  C:49CFH         LINE#         1995
  C:49CFH         LINE#         1996
  C:49D6H         LINE#         1997
  C:49D6H         LINE#         1998
  C:49DCH         LINE#         1999
  C:49DCH         LINE#         2000
  C:49E3H         LINE#         2001
  C:49E3H         LINE#         2002
  C:49E5H         LINE#         2004
  C:49E5H         LINE#         2005
  C:49ECH         LINE#         2006
  C:49ECH         LINE#         2007
  C:49ECH         LINE#         2009
  C:49FDH         LINE#         2010
  C:49FDH         LINE#         2011
  C:4A06H         LINE#         2012
  C:4A06H         LINE#         2013
  C:4A08H         LINE#         2014
  C:4A08H         LINE#         2015
  C:4A08H         LINE#         2017
  C:4A08H         LINE#         2018
  C:4A11H         LINE#         2019
  C:4A11H         LINE#         2020
  C:4A1CH         LINE#         2021
  C:4A1CH         LINE#         2022
  C:4A1CH         LINE#         2023
  C:4A1EH         LINE#         2024
  -------         ENDPROC       _BYTIME_CHGSTAGE
  -------         PROC          _HEAT_CTR
  D:002CH         SYMBOL        pScript
  -------         DO            
  D:002EH         SYMBOL        u8ChReq
  D:002FH         SYMBOL        u8BotDegree
  D:0007H         SYMBOL        u8TopDegree
  -------         ENDDO         
  C:4A1FH         LINE#         2057
  C:4A23H         LINE#         2058
  C:4A23H         LINE#         2059
BL51 BANKED LINKER/LOCATER V6.22                                                      01/05/2016  13:28:04  PAGE 116


  C:4A26H         LINE#         2060
  C:4A2CH         LINE#         2061
  C:4A31H         LINE#         2063
  C:4A3DH         LINE#         2064
  C:4A3DH         LINE#         2065
  C:4A4FH         LINE#         2066
  C:4A4FH         LINE#         2067
  C:4A4FH         LINE#         2068
  C:4A54H         LINE#         2069
  C:4A54H         LINE#         2070
  C:4A54H         LINE#         2071
  C:4A54H         LINE#         2072
  C:4A56H         LINE#         2073
  C:4A56H         LINE#         2074
  C:4A65H         LINE#         2075
  C:4A65H         LINE#         2076
  C:4A65H         LINE#         2077
  C:4A65H         LINE#         2078
  C:4A67H         LINE#         2079
  C:4A67H         LINE#         2080
  C:4A77H         LINE#         2081
  C:4A77H         LINE#         2082
  C:4A77H         LINE#         2083
  C:4A77H         LINE#         2084
  C:4A79H         LINE#         2085
  C:4A79H         LINE#         2086
  C:4A89H         LINE#         2087
  C:4A89H         LINE#         2088
  C:4A89H         LINE#         2089
  C:4A89H         LINE#         2090
  C:4A8BH         LINE#         2091
  C:4A8BH         LINE#         2092
  C:4A8EH         LINE#         2093
  C:4A90H         LINE#         2094
  C:4A90H         LINE#         2095
  C:4A90H         LINE#         2097
  C:4A90H         LINE#         2099
  C:4A9CH         LINE#         2100
  C:4A9CH         LINE#         2101
  C:4A9FH         LINE#         2102
  C:4AA1H         LINE#         2104
  C:4AA1H         LINE#         2105
  C:4AA4H         LINE#         2106
  C:4AA4H         LINE#         2107
  C:4AA4H         LINE#         2109
  C:4AA9H         LINE#         2110
  C:4AA9H         LINE#         2111
  C:4AB4H         LINE#         2112
  C:4AB4H         LINE#         2113
  C:4AB6H         LINE#         2114
  C:4AB8H         LINE#         2116
  C:4AB8H         LINE#         2117
  C:4ABAH         LINE#         2118
  C:4ABAH         LINE#         2119
  C:4ABAH         LINE#         2121
  C:4ABFH         LINE#         2122
  C:4ABFH         LINE#         2123
BL51 BANKED LINKER/LOCATER V6.22                                                      01/05/2016  13:28:04  PAGE 117


  C:4ACAH         LINE#         2124
  C:4ACAH         LINE#         2125
  C:4ACCH         LINE#         2126
  C:4ACDH         LINE#         2128
  C:4ACDH         LINE#         2129
  C:4ACFH         LINE#         2130
  C:4ACFH         LINE#         2131
  C:4ACFH         LINE#         2132
  -------         ENDPROC       _HEAT_CTR
  -------         PROC          _OTHERCMDS
  D:002CH         SYMBOL        pScript
  -------         DO            
  D:002EH         SYMBOL        u8TopDegree
  D:002FH         SYMBOL        u8ChReq
  D:0030H         SYMBOL        u8ExtStage
  -------         ENDDO         
  C:2C8EH         LINE#         2143
  C:2C92H         LINE#         2144
  C:2C92H         LINE#         2145
  C:2C99H         LINE#         2146
  C:2C9CH         LINE#         2147
  C:2C9FH         LINE#         2149
  C:2CBBH         LINE#         2150
  C:2CBBH         LINE#         2151
  C:2CBBH         LINE#         2152
  C:2CBEH         LINE#         2153
  C:2CC0H         LINE#         2154
  C:2CC2H         LINE#         2155
  C:2CC6H         LINE#         2156
  C:2CC8H         LINE#         2157
  C:2CC8H         LINE#         2158
  C:2CDFH         LINE#         2159
  C:2CDFH         LINE#         2160
  C:2CE2H         LINE#         2161
  C:2CF5H         LINE#         2162
  C:2D02H         LINE#         2163
  C:2D14H         LINE#         2164
  C:2D14H         LINE#         2165
  C:2D1BH         LINE#         2166
  C:2D1BH         LINE#         2167
  C:2D1BH         LINE#         2168
  C:2D1EH         LINE#         2169
  C:2D1EH         LINE#         2172
  C:2D2DH         LINE#         2173
  C:2D2DH         LINE#         2175
  C:2D33H         LINE#         2176
  C:2D33H         LINE#         2177
  C:2D39H         LINE#         2178
  C:2D39H         LINE#         2179
  C:2D46H         LINE#         2180
  C:2D48H         LINE#         2182
  C:2D48H         LINE#         2183
  C:2D4BH         LINE#         2184
  C:2D4BH         LINE#         2185
  C:2D4EH         LINE#         2186
  C:2D4EH         LINE#         2191
  C:2D52H         LINE#         2192
BL51 BANKED LINKER/LOCATER V6.22                                                      01/05/2016  13:28:04  PAGE 118


  C:2D52H         LINE#         2193
  C:2D5FH         LINE#         2194
  C:2D69H         LINE#         2195
  C:2D73H         LINE#         2200
  C:2D7AH         LINE#         2201
  C:2D7AH         LINE#         2204
  C:2D86H         LINE#         2205
  C:2D86H         LINE#         2206
  C:2D93H         LINE#         2207
  C:2D9DH         LINE#         2208
  C:2DA7H         LINE#         2209
  C:2DAEH         LINE#         2210
  C:2DAEH         LINE#         2211
  C:2DAEH         LINE#         2264
  C:2DB3H         LINE#         2265
  C:2DB3H         LINE#         2266
  C:2DBFH         LINE#         2267
  C:2DCFH         LINE#         2268
  C:2DD7H         LINE#         2269
  C:2DE1H         LINE#         2270
  C:2DE8H         LINE#         2271
  C:2DE8H         LINE#         2275
  C:2DF8H         LINE#         2276
  C:2DF8H         LINE#         2277
  C:2DFEH         LINE#         2280
  C:2E0CH         LINE#         2281
  C:2E0CH         LINE#         2282
  C:2E11H         LINE#         2283
  C:2E11H         LINE#         2284
  C:2E18H         LINE#         2285
  C:2E18H         LINE#         2286
  C:2E1BH         LINE#         2287
  C:2E1DH         LINE#         2289
  C:2E1DH         LINE#         2290
  C:2E21H         LINE#         2291
  C:2E21H         LINE#         2292
  C:2E25H         LINE#         2293
  C:2E28H         LINE#         2294
  C:2E2CH         LINE#         2295
  C:2E30H         LINE#         2296
  C:2E33H         LINE#         2297
  C:2E33H         LINE#         2299
  C:2E38H         LINE#         2300
  C:2E38H         LINE#         2301
  C:2E3CH         LINE#         2302
  C:2E40H         LINE#         2303
  C:2E43H         LINE#         2304
  C:2E47H         LINE#         2305
  C:2E57H         LINE#         2306
  C:2E5CH         LINE#         2307
  C:2E5CH         LINE#         2308
  C:2E5EH         LINE#         2309
  C:2E5EH         LINE#         2310
  C:2E62H         LINE#         2311
  C:2E62H         LINE#         2312
  C:2E62H         LINE#         2315
  C:2E67H         LINE#         2316
BL51 BANKED LINKER/LOCATER V6.22                                                      01/05/2016  13:28:04  PAGE 119


  C:2E67H         LINE#         2317
  C:2E6DH         LINE#         2318
  C:2E6DH         LINE#         2319
  C:2E74H         LINE#         2320
  C:2E74H         LINE#         2321
  C:2E77H         LINE#         2322
  C:2E7AH         LINE#         2323
  C:2E7CH         LINE#         2325
  C:2E7CH         LINE#         2326
  C:2E80H         LINE#         2327
  C:2E83H         LINE#         2328
  C:2E83H         LINE#         2329
  C:2E87H         LINE#         2330
  C:2E8AH         LINE#         2331
  C:2E8EH         LINE#         2332
  C:2E92H         LINE#         2333
  C:2E92H         LINE#         2334
  C:2E92H         LINE#         2335
  C:2E95H         LINE#         2336
  C:2E95H         LINE#         2337
  C:2E97H         LINE#         2338
  C:2E97H         LINE#         2339
  C:2E9AH         LINE#         2340
  C:2E9AH         LINE#         2341
  C:2E9DH         LINE#         2342
  C:2EA0H         LINE#         2343
  C:2EA0H         LINE#         2344
  C:2EA0H         LINE#         2345
  C:2EA0H         LINE#         2346
  C:2EA0H         LINE#         2347
  C:2EA0H         LINE#         2349
  C:2EA4H         LINE#         2350
  C:2EA4H         LINE#         2351
  C:2EA7H         LINE#         2352
  C:2EA7H         LINE#         2353
  C:2EA9H         LINE#         2354
  -------         ENDPROC       _OTHERCMDS
  -------         PROC          GETPOWERBYDT
  -------         DO            
  D:0007H         SYMBOL        u8TopDegree
  -------         ENDDO         
  C:5089H         LINE#         2364
  C:5089H         LINE#         2365
  C:5089H         LINE#         2366
  C:508EH         LINE#         2368
  C:5099H         LINE#         2369
  C:50A4H         LINE#         2370
  C:50A4H         LINE#         2371
  C:50A9H         LINE#         2372
  C:50B0H         LINE#         2374
  C:50BBH         LINE#         2375
  C:50BBH         LINE#         2376
  C:50BDH         LINE#         2377
  C:50BDH         LINE#         2380
  C:50C6H         LINE#         2381
  C:50C6H         LINE#         2382
  C:50CCH         LINE#         2383
BL51 BANKED LINKER/LOCATER V6.22                                                      01/05/2016  13:28:04  PAGE 120


  C:50CCH         LINE#         2386
  C:50D1H         LINE#         2387
  C:50D1H         LINE#         2388
  C:50D8H         LINE#         2389
  C:50D8H         LINE#         2392
  C:50E2H         LINE#         2393
  C:50E2H         LINE#         2394
  C:50E4H         LINE#         2395
  C:50E4H         LINE#         2397
  C:50EEH         LINE#         2398
  C:50EEH         LINE#         2399
  C:50F0H         LINE#         2400
  C:50F0H         LINE#         2402
  C:50F9H         LINE#         2403
  C:50F9H         LINE#         2404
  C:50FEH         LINE#         2405
  C:5100H         LINE#         2407
  C:5100H         LINE#         2408
  C:5103H         LINE#         2409
  C:5103H         LINE#         2412
  C:5107H         LINE#         2413
  C:5107H         LINE#         2414
  -------         ENDPROC       GETPOWERBYDT
  -------         ENDMOD        SCRIPT

  -------         MODULE        TIME
  C:0000H         SYMBOL        _ICE_DUMMY_
  D:0080H         PUBLIC        P0
  D:0090H         PUBLIC        P1
  D:0066H         PUBLIC        tmBookTime
  D:00A0H         PUBLIC        P2
  D:0069H         PUBLIC        tmCookTime
  D:00B0H         PUBLIC        P3
  D:00C0H         PUBLIC        P4
  D:0080H         PUBLIC        P5
  C:57AFH         PUBLIC        _DecTime
  C:5C9AH         PUBLIC        _IncTime
  C:59C2H         PUBLIC        _IncTime_MIN
  -------         PROC          _INCTIME
  D:0001H         SYMBOL        pTime
  C:5C9AH         LINE#         58
  C:5C9AH         LINE#         59
  C:5C9AH         LINE#         60
  C:5C9FH         LINE#         61
  C:5CA7H         LINE#         62
  C:5CA8H         LINE#         64
  C:5CA8H         LINE#         66
  C:5CA8H         LINE#         67
  C:5CACH         LINE#         68
  C:5CAFH         LINE#         69
  C:5CAFH         LINE#         70
  -------         ENDPROC       _INCTIME
  -------         PROC          _DECTIME
  D:0001H         SYMBOL        pTime
  C:57AFH         LINE#         80
  C:57AFH         LINE#         81
  C:57AFH         LINE#         82
BL51 BANKED LINKER/LOCATER V6.22                                                      01/05/2016  13:28:04  PAGE 121


  C:57B4H         LINE#         83
  C:57BAH         LINE#         84
  C:57BAH         LINE#         85
  C:57BFH         LINE#         86
  C:57C7H         LINE#         87
  C:57D0H         LINE#         88
  C:57D0H         LINE#         89
  C:57D8H         LINE#         90
  C:57E0H         LINE#         91
  C:57E9H         LINE#         92
  C:57E9H         LINE#         93
  C:57F1H         LINE#         94
  C:57F1H         LINE#         95
  C:57F1H         LINE#         96
  C:57F1H         LINE#         97
  -------         ENDPROC       _DECTIME
  -------         PROC          _INCTIME_MIN
  D:0001H         SYMBOL        pTime
  C:59C2H         LINE#         107
  C:59C2H         LINE#         108
  C:59C2H         LINE#         109
  C:59CAH         LINE#         110
  C:59D5H         LINE#         111
  C:59D6H         LINE#         113
  C:59D6H         LINE#         115
  C:59D6H         LINE#         116
  C:59DDH         LINE#         117
  C:59E5H         LINE#         118
  C:59EEH         LINE#         119
  C:59EEH         LINE#         120
  C:59F5H         LINE#         121
  C:59F5H         LINE#         122
  C:59F5H         LINE#         123
  -------         ENDPROC       _INCTIME_MIN
  -------         ENDMOD        TIME

  -------         MODULE        TEMPCTR
  C:0000H         SYMBOL        _ICE_DUMMY_
  D:0080H         PUBLIC        P0
  D:0090H         PUBLIC        P1
  D:00A0H         PUBLIC        P2
  D:00B0H         PUBLIC        P3
  D:00C0H         PUBLIC        P4
  D:0080H         PUBLIC        P5
  B:0080H.5       PUBLIC        P0_5
  B:0080H.6       PUBLIC        P0_6
  B:0080H.7       PUBLIC        P0_7
  C:4E6CH         PUBLIC        HeatProc
  D:004FH         PUBLIC        g_u8OffTime_Set
  D:0050H         PUBLIC        g_u16RelayTime
  C:5A28H         PUBLIC        KeepTempProc
  D:0052H         PUBLIC        g_u8HiTemp
  D:0053H         PUBLIC        g_u8LoTemp
  D:0054H         PUBLIC        g_u8OnTime_Set
  D:0055H         PUBLIC        g_u8PwrCnt
  D:0056H         SYMBOL        u8OffTime
  D:0057H         SYMBOL        u8OnTime
BL51 BANKED LINKER/LOCATER V6.22                                                      01/05/2016  13:28:04  PAGE 122


  -------         PROC          KEEPTEMPPROC
  -------         DO            
  D:0007H         SYMBOL        u8BotDegree
  -------         ENDDO         
  C:5A28H         LINE#         61
  C:5A28H         LINE#         62
  C:5A28H         LINE#         63
  C:5A2DH         LINE#         65
  C:5A31H         LINE#         66
  C:5A31H         LINE#         67
  C:5A34H         LINE#         69
  C:5A34H         LINE#         71
  C:5A37H         LINE#         72
  C:5A37H         LINE#         73
  C:5A3AH         LINE#         74
  C:5A3AH         LINE#         76
  C:5A40H         LINE#         77
  C:5A40H         LINE#         79
  C:5A42H         LINE#         81
  C:5A42H         LINE#         83
  C:5A42H         LINE#         85
  C:5A44H         LINE#         86
  C:5A44H         LINE#         87
  C:5A44H         LINE#         90
  C:5A4AH         LINE#         91
  C:5A4AH         LINE#         93
  C:5A4CH         LINE#         94
  C:5A4FH         LINE#         95
  C:5A50H         LINE#         97
  C:5A50H         LINE#         100
  C:5A53H         LINE#         101
  C:5A56H         LINE#         102
  C:5A56H         LINE#         103
  C:5A56H         LINE#         104
  -------         ENDPROC       KEEPTEMPPROC
  -------         PROC          HEATPROC
  C:4E6CH         LINE#         114
  C:4E6CH         LINE#         115
  C:4E6CH         LINE#         116
  C:4E7EH         LINE#         117
  C:4E7EH         LINE#         118
  C:4E80H         LINE#         119
  C:4E82H         LINE#         120
  C:4E84H         LINE#         121
  C:4E85H         LINE#         123
  C:4E85H         LINE#         124
  C:4E89H         LINE#         125
  C:4E89H         LINE#         126
  C:4E8BH         LINE#         127
  C:4E8DH         LINE#         128
  C:4E8FH         LINE#         129
  C:4E91H         LINE#         131
  C:4E91H         LINE#         132
  C:4E96H         LINE#         133
  C:4E96H         LINE#         134
  C:4E98H         LINE#         135
  C:4E9AH         LINE#         136
BL51 BANKED LINKER/LOCATER V6.22                                                      01/05/2016  13:28:04  PAGE 123


  C:4E9DH         LINE#         137
  C:4EA8H         LINE#         138
  C:4EAAH         LINE#         140
  C:4EAAH         LINE#         141
  C:4EADH         LINE#         142
  C:4EADH         LINE#         143
  C:4EAFH         LINE#         145
  C:4EB2H         LINE#         146
  C:4EB2H         LINE#         148
  C:4EB9H         LINE#         149
  C:4EB9H         LINE#         150
  C:4EBBH         LINE#         151
  C:4EBEH         LINE#         152
  C:4EC0H         LINE#         153
  C:4EC2H         LINE#         155
  C:4EC2H         LINE#         156
  C:4EC4H         LINE#         157
  C:4ECCH         LINE#         158
  C:4ECCH         LINE#         159
  C:4ECEH         LINE#         161
  C:4ECEH         LINE#         163
  C:4ED5H         LINE#         164
  C:4ED5H         LINE#         165
  C:4ED7H         LINE#         166
  C:4EDAH         LINE#         167
  C:4EDCH         LINE#         168
  C:4EE4H         LINE#         169
  C:4EE6H         LINE#         171
  C:4EE6H         LINE#         172
  C:4EE8H         LINE#         173
  C:4EE8H         LINE#         174
  C:4EE8H         LINE#         175
  C:4EE8H         LINE#         176
  C:4EE8H         LINE#         177
  C:4EE8H         LINE#         179
  C:4EEBH         LINE#         180
  C:4EEBH         LINE#         181
  C:4EEDH         LINE#         182
  C:4EEFH         LINE#         184
  C:4EEFH         LINE#         185
  C:4EF1H         LINE#         186
  C:4EF1H         LINE#         188
  C:4EF4H         LINE#         189
  C:4EF4H         LINE#         190
  C:4EF6H         LINE#         191
  C:4EF7H         LINE#         193
  C:4EF7H         LINE#         194
  C:4EF9H         LINE#         195
  C:4EF9H         LINE#         196
  C:4EF9H         LINE#         197
  -------         ENDPROC       HEATPROC
  -------         ENDMOD        TEMPCTR

  -------         MODULE        TABLEFUNC
  C:0000H         SYMBOL        _ICE_DUMMY_
  D:0080H         PUBLIC        P0
  D:0090H         PUBLIC        P1
BL51 BANKED LINKER/LOCATER V6.22                                                      01/05/2016  13:28:04  PAGE 124


  D:00A0H         PUBLIC        P2
  D:00B0H         PUBLIC        P3
  D:00C0H         PUBLIC        P4
  D:0080H         PUBLIC        P5
  C:319DH         PUBLIC        MashTimeTab
  C:30FBH         PUBLIC        SoakTimeKeepTab
  C:3167H         PUBLIC        SoakTempKeepTab
  C:308FH         PUBLIC        SoakTimeRiseTab
  C:31C1H         PUBLIC        CountDownTimeTab
  -------         ENDMOD        TABLEFUNC

  -------         MODULE        TABLES
  C:0000H         SYMBOL        _ICE_DUMMY_
  D:0080H         PUBLIC        P0
  D:0090H         PUBLIC        P1
  D:00A0H         PUBLIC        P2
  D:00B0H         PUBLIC        P3
  D:00C0H         PUBLIC        P4
  D:0080H         PUBLIC        P5
  C:2968H         PUBLIC        TempTable4200_103K
  C:27FCH         PUBLIC        TempTable3950_50K
  -------         ENDMOD        TABLES

  -------         MODULE        BCD8TOHEX
  C:5CFFH         SEGMENT       ?PR?_BCD8TOHEX?BCD8TOHEX
  C:5CFFH         PUBLIC        _BCD8TOHEX
  D:00F0H         SYMBOL        B
  N:0000H         SYMBOL        BCD8TOHEX
  C:5CFFH         LINE#         15
  C:5D00H         LINE#         16
  C:5D02H         LINE#         17
  C:5D03H         LINE#         18
  C:5D04H         LINE#         19
  C:5D06H         LINE#         20
  C:5D07H         LINE#         21
  C:5D08H         LINE#         22
  C:5D09H         LINE#         23
  C:5D0AH         LINE#         24
  C:5D0DH         LINE#         25
  C:5D0EH         LINE#         26
  C:5D0FH         LINE#         27
  C:5D10H         LINE#         28
  -------         ENDMOD        BCD8TOHEX

  -------         MODULE        HEX8TOBCD
  C:5CC5H         SEGMENT       ?PR?_HEX8TOBCD?HEX8TOBCD
  C:5CC5H         PUBLIC        _HEX8TOBCD
  D:00F0H         SYMBOL        B
  N:0000H         SYMBOL        HEX8TOBCD
  C:5CC5H         LINE#         9
  C:5CC6H         LINE#         10
  C:5CC9H         LINE#         11
  C:5CCAH         LINE#         12
  C:5CCBH         LINE#         13
  C:5CCDH         LINE#         14
  C:5CD0H         LINE#         15
  C:5CD1H         LINE#         16
BL51 BANKED LINKER/LOCATER V6.22                                                      01/05/2016  13:28:04  PAGE 125


  C:5CD2H         LINE#         17
  C:5CD3H         LINE#         18
  C:5CD4H         LINE#         19
  C:5CD5H         LINE#         20
  C:5CD7H         LINE#         21
  C:5CD8H         LINE#         22
  -------         ENDMOD        HEX8TOBCD

  -------         MODULE        MATH
  C:5B71H         SEGMENT       ?PR?_DELAY?DELAY
  C:5B71H         PUBLIC        _DELAY
  C:5B72H         SYMBOL        ??DELAY_1
  C:5B82H         SYMBOL        ??DELAY_2
  C:5B8CH         SYMBOL        ??DELAY_3
  C:5B71H         LINE#         12
  C:5B72H         LINE#         15
  C:5B73H         LINE#         16
  C:5B75H         LINE#         17
  C:5B76H         LINE#         18
  C:5B77H         LINE#         19
  C:5B78H         LINE#         20
  C:5B79H         LINE#         21
  C:5B7AH         LINE#         22
  C:5B7BH         LINE#         23
  C:5B7CH         LINE#         24
  C:5B7DH         LINE#         25
  C:5B7EH         LINE#         26
  C:5B7FH         LINE#         27
  C:5B80H         LINE#         28
  C:5B82H         LINE#         31
  C:5B83H         LINE#         32
  C:5B85H         LINE#         33
  C:5B86H         LINE#         34
  C:5B88H         LINE#         35
  C:5B89H         LINE#         36
  C:5B8AH         LINE#         37
  C:5B8CH         LINE#         40
  C:5B8DH         LINE#         41
  C:5B8EH         LINE#         42
  C:5B8FH         LINE#         43
  C:5B90H         LINE#         44
  C:5B91H         LINE#         45
  C:5B92H         LINE#         46
  C:5B93H         LINE#         47
  C:5B94H         LINE#         49
  -------         ENDMOD        MATH

  -------         MODULE        ?C?CLDPTR
  C:33F5H         PUBLIC        ?C?CLDPTR
  -------         ENDMOD        ?C?CLDPTR

  -------         MODULE        ?C?CLDOPTR
  C:340EH         PUBLIC        ?C?CLDOPTR
  -------         ENDMOD        ?C?CLDOPTR

  -------         MODULE        ?C?CILDPTR
  C:343BH         PUBLIC        ?C?CILDPTR
BL51 BANKED LINKER/LOCATER V6.22                                                      01/05/2016  13:28:04  PAGE 126


  -------         ENDMOD        ?C?CILDPTR

  -------         MODULE        ?C?CILDOPTR
  C:345DH         PUBLIC        ?C?CILDOPTR
  -------         ENDMOD        ?C?CILDOPTR

  -------         MODULE        ?C?CSTPTR
  C:3490H         PUBLIC        ?C?CSTPTR
  -------         ENDMOD        ?C?CSTPTR

  -------         MODULE        ?C?CSTOPTR
  C:34A2H         PUBLIC        ?C?CSTOPTR
  -------         ENDMOD        ?C?CSTOPTR

  -------         MODULE        ?C?IMUL
  C:34C4H         PUBLIC        ?C?IMUL
  -------         ENDMOD        ?C?IMUL

  -------         MODULE        ?C?UIDIV
  C:34D6H         PUBLIC        ?C?UIDIV
  -------         ENDMOD        ?C?UIDIV

  -------         MODULE        ?C?ILDOPTR
  C:352BH         PUBLIC        ?C?ILDOPTR
  -------         ENDMOD        ?C?ILDOPTR

  -------         MODULE        ?C?ISTOPTR
  C:3563H         PUBLIC        ?C?ISTOPTR
  -------         ENDMOD        ?C?ISTOPTR

  -------         MODULE        ?C?OFFXADD
  C:3590H         PUBLIC        ?C?OFFXADD
  -------         ENDMOD        ?C?OFFXADD

Program Size: data=228.3 xdata=111 code=23926
LINK/LOCATE RUN COMPLETE.  0 WARNING(S),  0 ERROR(S)
